                              1 ;--------------------------------------------------------
                              2 ; File Created by SDCC : FreeWare ANSI-C Compiler
                              3 ; Version 2.2.1 Thu May 07 18:59:16 2020
                              4 
                              5 ;--------------------------------------------------------
                              6 	.module lcc178120
                              7 	
                              8 ;--------------------------------------------------------
                              9 ; Public variables in this module
                             10 ;--------------------------------------------------------
                             11 	.globl _main
                             12 	.globl _detect_epee_collision
                             13 	.globl _hide_epee
                             14 	.globl _show_epee
                             15 	.globl _game_init
                             16 	.globl _detect_start
                             17 	.globl _detect_proximity
                             18 	.globl _detect_zone_change
                             19 	.globl _detect_movement
                             20 	.globl _show_message
                             21 	.globl _hide_win_text
                             22 	.globl _print_to_win
                             23 	.globl _chr_to_hex
                             24 	.globl _detect_edge
                             25 	.globl _get_active_pnj
                             26 	.globl _get_active_zone
                             27 	.globl _move_player
                             28 	.globl _set_zone
                             29 	.globl _hide_pnj
                             30 	.globl _set_pnj
                             31 	.globl _set_player_tile
                             32 	.globl _get_player_tile
                             33 	.globl _get_player_direction
                             34 	.globl _proximity
                             35 	.globl _can_player_move
                             36 	.globl _strcmp
                             37 	.globl _free
                             38 	.globl _malloc
                             39 	.globl _malloc_init
                             40 	.globl _font_set
                             41 	.globl _font_load
                             42 	.globl _font_init
                             43 	.globl _scroll_sprite
                             44 	.globl _move_sprite
                             45 	.globl _get_sprite_tile
                             46 	.globl _set_sprite_tile
                             47 	.globl _set_sprite_data
                             48 	.globl _move_win
                             49 	.globl _set_win_tiles
                             50 	.globl _set_win_data
                             51 	.globl _set_bkg_tiles
                             52 	.globl _set_bkg_data
                             53 	.globl _waitpadup
                             54 	.globl _waitpad
                             55 	.globl _joypad
                             56 	.globl _delay
                             57 	.globl _listezone
                             58 	.globl _listepnj
                             59 	.globl _blanktext
                             60 	.globl _epee_coords
                             61 	.globl _epeestat
                             62 	.globl _min_font
                             63 	.globl _startbool
                             64 	.globl _compteur_cycles
                             65 	.globl _proxtest
                             66 	.globl _speed
                             67 	.globl _player_location
                             68 	.globl _count_u
                             69 	.globl _count_d
                             70 	.globl _count_l
                             71 	.globl _count_r
                             72 	.globl _malloc_first
                             73 	.globl _main
                             74 	.globl _detect_epee_collision
                             75 	.globl _hide_epee
                             76 	.globl _show_epee
                             77 	.globl _game_init
                             78 	.globl _detect_start
                             79 	.globl _detect_proximity
                             80 	.globl _detect_zone_change
                             81 	.globl _detect_movement
                             82 	.globl _show_message
                             83 	.globl _hide_win_text
                             84 	.globl _print_to_win
                             85 	.globl _chr_to_hex
                             86 	.globl _detect_edge
                             87 	.globl _get_active_pnj
                             88 	.globl _get_active_zone
                             89 	.globl _move_player
                             90 	.globl _set_zone
                             91 	.globl _hide_pnj
                             92 	.globl _set_pnj
                             93 	.globl _set_player_tile
                             94 	.globl _get_player_tile
                             95 	.globl _get_player_direction
                             96 	.globl _proximity
                             97 	.globl _can_player_move
                             98 	.globl _sizelistepnj
                             99 	.globl _strcmp
                            100 	.globl _free
                            101 	.globl _malloc
                            102 	.globl _malloc_gc
                            103 	.globl _malloc_init
                            104 	.globl _enemi
                            105 	.globl _vioc
                            106 	.globl _meuf
                            107 	.globl _epee
                            108 	.globl _bonhomme
                            109 	.globl _ground3
                            110 	.globl _ground2
                            111 	.globl _ground
                            112 	.globl _room2
                            113 	.globl _room
                            114 	.globl _virgule
                            115 	.globl _groundtiles
                            116 	.globl _debug
                            117 ;--------------------------------------------------------
                            118 ; Externals used
                            119 ;--------------------------------------------------------
                            120 	.globl _IE_REG
                            121 	.globl _SVBK_REG
                            122 	.globl _OCPD_REG
                            123 	.globl _OCPS_REG
                            124 	.globl _BCPD_REG
                            125 	.globl _BCPS_REG
                            126 	.globl _RP_REG
                            127 	.globl _HDMA5_REG
                            128 	.globl _HDMA4_REG
                            129 	.globl _HDMA3_REG
                            130 	.globl _HDMA2_REG
                            131 	.globl _HDMA1_REG
                            132 	.globl _VBK_REG
                            133 	.globl _KEY1_REG
                            134 	.globl _WX_REG
                            135 	.globl _WY_REG
                            136 	.globl _OBP1_REG
                            137 	.globl _OBP0_REG
                            138 	.globl _BGP_REG
                            139 	.globl _DMA_REG
                            140 	.globl _LYC_REG
                            141 	.globl _LY_REG
                            142 	.globl _SCX_REG
                            143 	.globl _SCY_REG
                            144 	.globl _STAT_REG
                            145 	.globl _LCDC_REG
                            146 	.globl _NR52_REG
                            147 	.globl _NR51_REG
                            148 	.globl _NR50_REG
                            149 	.globl _NR44_REG
                            150 	.globl _NR43_REG
                            151 	.globl _NR42_REG
                            152 	.globl _NR41_REG
                            153 	.globl _NR34_REG
                            154 	.globl _NR33_REG
                            155 	.globl _NR32_REG
                            156 	.globl _NR31_REG
                            157 	.globl _NR30_REG
                            158 	.globl _NR24_REG
                            159 	.globl _NR23_REG
                            160 	.globl _NR22_REG
                            161 	.globl _NR21_REG
                            162 	.globl _NR14_REG
                            163 	.globl _NR13_REG
                            164 	.globl _NR12_REG
                            165 	.globl _NR11_REG
                            166 	.globl _NR10_REG
                            167 	.globl _IF_REG
                            168 	.globl _TAC_REG
                            169 	.globl _TMA_REG
                            170 	.globl _TIMA_REG
                            171 	.globl _DIV_REG
                            172 	.globl _SC_REG
                            173 	.globl _SB_REG
                            174 	.globl _P1_REG
                            175 	.globl _malloc_first
                            176 	.globl _malloc_heap_start
                            177 	.globl _font_ibm_fixed
                            178 	.globl _font_min
                            179 	.globl _font_ibm
                            180 	.globl _font_italic
                            181 	.globl _font_spect
                            182 	.globl __io_out
                            183 	.globl __io_in
                            184 	.globl __io_status
                            185 	.globl _sys_time
                            186 	.globl __cpu
                            187 ;--------------------------------------------------------
                            188 ; special function registers
                            189 ;--------------------------------------------------------
                            190 ;--------------------------------------------------------
                            191 ; special function bits 
                            192 ;--------------------------------------------------------
                            193 ;--------------------------------------------------------
                            194 ; internal ram data
                            195 ;--------------------------------------------------------
                            196 	.area _DATA
   0000                     197 _malloc_first::
   0000                     198 	.ds 2
   0002                     199 _winmap::
   0002                     200 	.ds 2
   0004                     201 _count_r::
   0004                     202 	.ds 2
   0006                     203 _count_l::
   0006                     204 	.ds 2
   0008                     205 _count_d::
   0008                     206 	.ds 2
   000A                     207 _count_u::
   000A                     208 	.ds 2
   000C                     209 _player_location::
   000C                     210 	.ds 4
   0010                     211 _speed::
   0010                     212 	.ds 2
   0012                     213 _proxtest::
   0012                     214 	.ds 2
   0014                     215 _compteur_cycles::
   0014                     216 	.ds 2
   0016                     217 _startbool::
   0016                     218 	.ds 2
   0018                     219 _min_font::
   0018                     220 	.ds 2
   001A                     221 _epeestat::
   001A                     222 	.ds 1
   001B                     223 _prox::
   001B                     224 	.ds 1
   001C                     225 _epee_coords::
   001C                     226 	.ds 2
   001E                     227 _blanktext::
   001E                     228 	.ds 2
   0020                     229 _listepnj::
   0020                     230 	.ds 48
   0050                     231 _listezone::
   0050                     232 	.ds 35
                            233 ;--------------------------------------------------------
                            234 ; overlayable items in internal ram 
                            235 ;--------------------------------------------------------
                            236 	.area _OVERLAY
                            237 ;--------------------------------------------------------
                            238 ; indirectly addressable internal ram data
                            239 ;--------------------------------------------------------
                            240 	.area _ISEG
                            241 ;--------------------------------------------------------
                            242 ; bit data
                            243 ;--------------------------------------------------------
                            244 	.area _BSEG
                            245 ;--------------------------------------------------------
                            246 ; external ram data
                            247 ;--------------------------------------------------------
                            248 	.area _XSEG
                            249 ;--------------------------------------------------------
                            250 ; global & static initialisations
                            251 ;--------------------------------------------------------
                            252 	.area _GSINIT
                            253 	.area _GSFINAL
                            254 	.area _GSINIT
                            255 ;	src\\main.c 45
                            256 ; genAssign (pointer)
   0000 11 1C 00            257 	ld	de,#_epee_coords + 0
   0003 3E 00               258 	ld	a,#0x00
   0005 12                  259 	ld	(de),a
                            260 ; genPlus
                            261 ; genPlusIncr
   0006 11 1D 00            262 	ld	de,#_epee_coords + 0 + 1
                            263 ; genAssign (pointer)
   0009 3E 00               264 	ld	a,#0x00
   000B 12                  265 	ld	(de),a
                            266 ;	src\\main.c 45
                            267 ; genAddrOf
                            268 ; AOP_HL for _blanktext
   000C 11 89 23            269 	ld	de,#__str_23
   000F 21 1E 00            270 	ld	hl,#_blanktext + 0
   0012 73                  271 	ld	(hl),e
   0013 23                  272 	inc	hl
   0014 72                  273 	ld	(hl),d
                            274 ;	src\\main.c 45
                            275 ; genAssign (pointer)
   0015 11 20 00            276 	ld	de,#_listepnj + 0
   0018 3E C6               277 	ld	a,#<__str_24
   001A 12                  278 	ld	(de),a
   001B 13                  279 	inc	de
   001C 3E 23               280 	ld	a,#>__str_24
   001E 12                  281 	ld	(de),a
                            282 ; genPlus
                            283 ; genPlusIncr
   001F 11 22 00            284 	ld	de,#_listepnj + 0 + 2
                            285 ; genAssign (pointer)
   0022 3E 08               286 	ld	a,#0x08
   0024 12                  287 	ld	(de),a
                            288 ; genPlus
                            289 ; genPlusIncr
   0025 11 23 00            290 	ld	de,#_listepnj + 0 + 3
                            291 ; genAssign (pointer)
   0028 3E 01               292 	ld	a,#0x01
   002A 12                  293 	ld	(de),a
                            294 ; genPlus
                            295 ; genPlusIncr
   002B 11 24 00            296 	ld	de,#_listepnj + 0 + 4
                            297 ; genAssign (pointer)
   002E 3E 58               298 	ld	a,#0x58
   0030 12                  299 	ld	(de),a
                            300 ; genPlus
                            301 ; genPlusIncr
   0031 11 25 00            302 	ld	de,#_listepnj + 0 + 5
                            303 ; genAssign (pointer)
   0034 3E 50               304 	ld	a,#0x50
   0036 12                  305 	ld	(de),a
                            306 ; genPlus
                            307 ; genPlusIncr
   0037 11 26 00            308 	ld	de,#_listepnj + 0 + 6
                            309 ; genAssign (pointer)
   003A 3E 00               310 	ld	a,#0x00
   003C 12                  311 	ld	(de),a
                            312 ; genPlus
                            313 ; genPlusIncr
   003D 11 27 00            314 	ld	de,#_listepnj + 0 + 7
                            315 ; genAssign (pointer)
   0040 3E 49               316 	ld	a,#<_vioc
   0042 12                  317 	ld	(de),a
   0043 13                  318 	inc	de
   0044 3E 08               319 	ld	a,#>_vioc
   0046 12                  320 	ld	(de),a
                            321 ; genPlus
                            322 ; genPlusIncr
   0047 11 29 00            323 	ld	de,#_listepnj + 0 + 9
                            324 ; genAssign (pointer)
   004A 3E CB               325 	ld	a,#<__str_25
   004C 12                  326 	ld	(de),a
   004D 13                  327 	inc	de
   004E 3E 23               328 	ld	a,#>__str_25
   0050 12                  329 	ld	(de),a
                            330 ; genPlus
                            331 ; genPlusIncr
   0051 11 2B 00            332 	ld	de,#_listepnj + 0 + 11
                            333 ; genAssign (pointer)
   0054 3E 01               334 	ld	a,#<__str_26
   0056 12                  335 	ld	(de),a
   0057 13                  336 	inc	de
   0058 3E 24               337 	ld	a,#>__str_26
   005A 12                  338 	ld	(de),a
                            339 ; genPlus
                            340 ; genPlusIncr
   005B 11 2D 00            341 	ld	de,#_listepnj + 0 + 13
                            342 ; genAssign (pointer)
   005E 3E 02               343 	ld	a,#0x02
   0060 12                  344 	ld	(de),a
                            345 ; genPlus
                            346 ; genPlusIncr
   0061 11 2E 00            347 	ld	de,#_listepnj + 0 + 14
                            348 ; genAssign (pointer)
   0064 3E 01               349 	ld	a,#0x01
   0066 12                  350 	ld	(de),a
                            351 ; genPlus
                            352 ; genPlusIncr
   0067 11 2F 00            353 	ld	de,#_listepnj + 0 + 15
                            354 ; genAssign (pointer)
   006A 3E 01               355 	ld	a,#0x01
   006C 12                  356 	ld	(de),a
                            357 ; genPlus
                            358 ; genPlusIncr
   006D 01 30 00            359 	ld	bc,#_listepnj + 0 + 16
                            360 ; genAssign (pointer)
   0070 59                  361 	ld	e,c
   0071 50                  362 	ld	d,b
   0072 3E 3B               363 	ld	a,#<__str_27
   0074 12                  364 	ld	(de),a
   0075 13                  365 	inc	de
   0076 3E 24               366 	ld	a,#>__str_27
   0078 12                  367 	ld	(de),a
                            368 ; genPlus
                            369 ; genPlusIncr
   0079 11 32 00            370 	ld	de,#_listepnj + 0 + 18
                            371 ; genAssign (pointer)
   007C 3E 09               372 	ld	a,#0x09
   007E 12                  373 	ld	(de),a
                            374 ; genPlus
                            375 ; genPlusIncr
   007F 11 33 00            376 	ld	de,#_listepnj + 0 + 19
                            377 ; genAssign (pointer)
   0082 3E 01               378 	ld	a,#0x01
   0084 12                  379 	ld	(de),a
                            380 ; genPlus
                            381 ; genPlusIncr
   0085 11 34 00            382 	ld	de,#_listepnj + 0 + 20
                            383 ; genAssign (pointer)
   0088 3E 58               384 	ld	a,#0x58
   008A 12                  385 	ld	(de),a
                            386 ; genPlus
                            387 ; genPlusIncr
   008B 11 35 00            388 	ld	de,#_listepnj + 0 + 21
                            389 ; genAssign (pointer)
   008E 3E 50               390 	ld	a,#0x50
   0090 12                  391 	ld	(de),a
                            392 ; genPlus
                            393 ; genPlusIncr
   0091 11 36 00            394 	ld	de,#_listepnj + 0 + 22
                            395 ; genAssign (pointer)
   0094 3E 00               396 	ld	a,#0x00
   0096 12                  397 	ld	(de),a
                            398 ; genPlus
                            399 ; genPlusIncr
                            400 ;	genPlusIncr failed
   0097 79                  401 	ld	a,c
   0098 C6 07               402 	add	a,#0x07
   009A 5F                  403 	ld	e,a
   009B 78                  404 	ld	a,b
   009C CE 00               405 	adc	a,#0x00
   009E 57                  406 	ld	d,a
                            407 ; genAssign (pointer)
   009F 3E 39               408 	ld	a,#<_meuf
   00A1 12                  409 	ld	(de),a
   00A2 13                  410 	inc	de
   00A3 3E 08               411 	ld	a,#>_meuf
   00A5 12                  412 	ld	(de),a
                            413 ; genPlus
                            414 ; genPlusIncr
                            415 ;	genPlusIncr failed
   00A6 79                  416 	ld	a,c
   00A7 C6 09               417 	add	a,#0x09
   00A9 5F                  418 	ld	e,a
   00AA 78                  419 	ld	a,b
   00AB CE 00               420 	adc	a,#0x00
   00AD 57                  421 	ld	d,a
                            422 ; genAssign (pointer)
   00AE 3E 40               423 	ld	a,#<__str_28
   00B0 12                  424 	ld	(de),a
   00B1 13                  425 	inc	de
   00B2 3E 24               426 	ld	a,#>__str_28
   00B4 12                  427 	ld	(de),a
                            428 ; genPlus
                            429 ; genPlusIncr
                            430 ;	genPlusIncr failed
   00B5 79                  431 	ld	a,c
   00B6 C6 0B               432 	add	a,#0x0B
   00B8 5F                  433 	ld	e,a
   00B9 78                  434 	ld	a,b
   00BA CE 00               435 	adc	a,#0x00
   00BC 57                  436 	ld	d,a
                            437 ; genAssign (pointer)
   00BD 3E 72               438 	ld	a,#<__str_29
   00BF 12                  439 	ld	(de),a
   00C0 13                  440 	inc	de
   00C1 3E 24               441 	ld	a,#>__str_29
   00C3 12                  442 	ld	(de),a
                            443 ; genPlus
                            444 ; genPlusIncr
   00C4 11 3D 00            445 	ld	de,#_listepnj + 0 + 29
                            446 ; genAssign (pointer)
   00C7 3E 01               447 	ld	a,#0x01
   00C9 12                  448 	ld	(de),a
                            449 ; genPlus
                            450 ; genPlusIncr
   00CA 11 3E 00            451 	ld	de,#_listepnj + 0 + 30
                            452 ; genAssign (pointer)
   00CD 3E 01               453 	ld	a,#0x01
   00CF 12                  454 	ld	(de),a
                            455 ; genPlus
                            456 ; genPlusIncr
   00D0 11 3F 00            457 	ld	de,#_listepnj + 0 + 31
                            458 ; genAssign (pointer)
   00D3 3E 01               459 	ld	a,#0x01
   00D5 12                  460 	ld	(de),a
                            461 ; genPlus
                            462 ; genPlusIncr
   00D6 01 40 00            463 	ld	bc,#_listepnj + 0 + 32
                            464 ; genAssign (pointer)
   00D9 59                  465 	ld	e,c
   00DA 50                  466 	ld	d,b
   00DB 3E 73               467 	ld	a,#<__str_30
   00DD 12                  468 	ld	(de),a
   00DE 13                  469 	inc	de
   00DF 3E 24               470 	ld	a,#>__str_30
   00E1 12                  471 	ld	(de),a
                            472 ; genPlus
                            473 ; genPlusIncr
   00E2 11 42 00            474 	ld	de,#_listepnj + 0 + 34
                            475 ; genAssign (pointer)
   00E5 3E 0A               476 	ld	a,#0x0A
   00E7 12                  477 	ld	(de),a
                            478 ; genPlus
                            479 ; genPlusIncr
   00E8 11 43 00            480 	ld	de,#_listepnj + 0 + 35
                            481 ; genAssign (pointer)
   00EB 3E 01               482 	ld	a,#0x01
   00ED 12                  483 	ld	(de),a
                            484 ; genPlus
                            485 ; genPlusIncr
   00EE 11 44 00            486 	ld	de,#_listepnj + 0 + 36
                            487 ; genAssign (pointer)
   00F1 3E 58               488 	ld	a,#0x58
   00F3 12                  489 	ld	(de),a
                            490 ; genPlus
                            491 ; genPlusIncr
   00F4 11 45 00            492 	ld	de,#_listepnj + 0 + 37
                            493 ; genAssign (pointer)
   00F7 3E 50               494 	ld	a,#0x50
   00F9 12                  495 	ld	(de),a
                            496 ; genPlus
                            497 ; genPlusIncr
   00FA 11 46 00            498 	ld	de,#_listepnj + 0 + 38
                            499 ; genAssign (pointer)
   00FD 3E 00               500 	ld	a,#0x00
   00FF 12                  501 	ld	(de),a
                            502 ; genPlus
                            503 ; genPlusIncr
                            504 ;	genPlusIncr failed
   0100 79                  505 	ld	a,c
   0101 C6 07               506 	add	a,#0x07
   0103 5F                  507 	ld	e,a
   0104 78                  508 	ld	a,b
   0105 CE 00               509 	adc	a,#0x00
   0107 57                  510 	ld	d,a
                            511 ; genAssign (pointer)
   0108 3E 59               512 	ld	a,#<_enemi
   010A 12                  513 	ld	(de),a
   010B 13                  514 	inc	de
   010C 3E 08               515 	ld	a,#>_enemi
   010E 12                  516 	ld	(de),a
                            517 ; genPlus
                            518 ; genPlusIncr
                            519 ;	genPlusIncr failed
   010F 79                  520 	ld	a,c
   0110 C6 09               521 	add	a,#0x09
   0112 5F                  522 	ld	e,a
   0113 78                  523 	ld	a,b
   0114 CE 00               524 	adc	a,#0x00
   0116 57                  525 	ld	d,a
                            526 ; genAssign (pointer)
   0117 3E 79               527 	ld	a,#<__str_31
   0119 12                  528 	ld	(de),a
   011A 13                  529 	inc	de
   011B 3E 24               530 	ld	a,#>__str_31
   011D 12                  531 	ld	(de),a
                            532 ; genPlus
                            533 ; genPlusIncr
                            534 ;	genPlusIncr failed
   011E 79                  535 	ld	a,c
   011F C6 0B               536 	add	a,#0x0B
   0121 5F                  537 	ld	e,a
   0122 78                  538 	ld	a,b
   0123 CE 00               539 	adc	a,#0x00
   0125 57                  540 	ld	d,a
                            541 ; genAssign (pointer)
   0126 3E 9C               542 	ld	a,#<__str_32
   0128 12                  543 	ld	(de),a
   0129 13                  544 	inc	de
   012A 3E 24               545 	ld	a,#>__str_32
   012C 12                  546 	ld	(de),a
                            547 ; genPlus
                            548 ; genPlusIncr
   012D 11 4D 00            549 	ld	de,#_listepnj + 0 + 45
                            550 ; genAssign (pointer)
   0130 3E 01               551 	ld	a,#0x01
   0132 12                  552 	ld	(de),a
                            553 ; genPlus
                            554 ; genPlusIncr
   0133 11 4E 00            555 	ld	de,#_listepnj + 0 + 46
                            556 ; genAssign (pointer)
   0136 3E 01               557 	ld	a,#0x01
   0138 12                  558 	ld	(de),a
                            559 ; genPlus
                            560 ; genPlusIncr
   0139 11 4F 00            561 	ld	de,#_listepnj + 0 + 47
                            562 ; genAssign (pointer)
   013C 3E 01               563 	ld	a,#0x01
   013E 12                  564 	ld	(de),a
                            565 ;	src\\main.c 45
                            566 ; genAssign (pointer)
   013F 11 50 00            567 	ld	de,#_listezone + 0
   0142 3E 51               568 	ld	a,#<_ground
   0144 12                  569 	ld	(de),a
   0145 13                  570 	inc	de
   0146 3E 03               571 	ld	a,#>_ground
   0148 12                  572 	ld	(de),a
                            573 ; genPlus
                            574 ; genPlusIncr
   0149 11 52 00            575 	ld	de,#_listezone + 0 + 2
                            576 ; genAssign (pointer)
   014C 3E 01               577 	ld	a,#0x01
   014E 12                  578 	ld	(de),a
                            579 ; genPlus
                            580 ; genPlusIncr
   014F 11 53 00            581 	ld	de,#_listezone + 0 + 3
                            582 ; genAssign (pointer)
   0152 3E 03               583 	ld	a,#0x03
   0154 12                  584 	ld	(de),a
                            585 ; genPlus
                            586 ; genPlusIncr
   0155 11 54 00            587 	ld	de,#_listezone + 0 + 4
                            588 ; genAssign (pointer)
   0158 3E 00               589 	ld	a,#0x00
   015A 12                  590 	ld	(de),a
                            591 ; genPlus
                            592 ; genPlusIncr
   015B 11 55 00            593 	ld	de,#_listezone + 0 + 5
                            594 ; genAssign (pointer)
   015E 3E 00               595 	ld	a,#0x00
   0160 12                  596 	ld	(de),a
                            597 ; genPlus
                            598 ; genPlusIncr
   0161 11 56 00            599 	ld	de,#_listezone + 0 + 6
                            600 ; genAssign (pointer)
   0164 3E 00               601 	ld	a,#0x00
   0166 12                  602 	ld	(de),a
                            603 ; genPlus
                            604 ; genPlusIncr
   0167 11 57 00            605 	ld	de,#_listezone + 0 + 7
                            606 ; genAssign (pointer)
   016A 3E 81               607 	ld	a,#<_room
   016C 12                  608 	ld	(de),a
   016D 13                  609 	inc	de
   016E 3E 00               610 	ld	a,#>_room
   0170 12                  611 	ld	(de),a
                            612 ; genPlus
                            613 ; genPlusIncr
   0171 11 59 00            614 	ld	de,#_listezone + 0 + 9
                            615 ; genAssign (pointer)
   0174 3E 00               616 	ld	a,#0x00
   0176 12                  617 	ld	(de),a
                            618 ; genPlus
                            619 ; genPlusIncr
   0177 11 5A 00            620 	ld	de,#_listezone + 0 + 10
                            621 ; genAssign (pointer)
   017A 3E 00               622 	ld	a,#0x00
   017C 12                  623 	ld	(de),a
                            624 ; genPlus
                            625 ; genPlusIncr
   017D 11 5B 00            626 	ld	de,#_listezone + 0 + 11
                            627 ; genAssign (pointer)
   0180 3E 00               628 	ld	a,#0x00
   0182 12                  629 	ld	(de),a
                            630 ; genPlus
                            631 ; genPlusIncr
   0183 11 5C 00            632 	ld	de,#_listezone + 0 + 12
                            633 ; genAssign (pointer)
   0186 3E 00               634 	ld	a,#0x00
   0188 12                  635 	ld	(de),a
                            636 ; genPlus
                            637 ; genPlusIncr
   0189 11 5D 00            638 	ld	de,#_listezone + 0 + 13
                            639 ; genAssign (pointer)
   018C 3E 00               640 	ld	a,#0x00
   018E 12                  641 	ld	(de),a
                            642 ; genPlus
                            643 ; genPlusIncr
   018F 11 5E 00            644 	ld	de,#_listezone + 0 + 14
                            645 ; genAssign (pointer)
   0192 3E E9               646 	ld	a,#<_room2
   0194 12                  647 	ld	(de),a
   0195 13                  648 	inc	de
   0196 3E 01               649 	ld	a,#>_room2
   0198 12                  650 	ld	(de),a
                            651 ; genPlus
                            652 ; genPlusIncr
   0199 11 60 00            653 	ld	de,#_listezone + 0 + 16
                            654 ; genAssign (pointer)
   019C 3E 00               655 	ld	a,#0x00
   019E 12                  656 	ld	(de),a
                            657 ; genPlus
                            658 ; genPlusIncr
   019F 11 61 00            659 	ld	de,#_listezone + 0 + 17
                            660 ; genAssign (pointer)
   01A2 3E 00               661 	ld	a,#0x00
   01A4 12                  662 	ld	(de),a
                            663 ; genPlus
                            664 ; genPlusIncr
   01A5 11 62 00            665 	ld	de,#_listezone + 0 + 18
                            666 ; genAssign (pointer)
   01A8 3E 00               667 	ld	a,#0x00
   01AA 12                  668 	ld	(de),a
                            669 ; genPlus
                            670 ; genPlusIncr
   01AB 11 63 00            671 	ld	de,#_listezone + 0 + 19
                            672 ; genAssign (pointer)
   01AE 3E 00               673 	ld	a,#0x00
   01B0 12                  674 	ld	(de),a
                            675 ; genPlus
                            676 ; genPlusIncr
   01B1 11 64 00            677 	ld	de,#_listezone + 0 + 20
                            678 ; genAssign (pointer)
   01B4 3E 00               679 	ld	a,#0x00
   01B6 12                  680 	ld	(de),a
                            681 ; genPlus
                            682 ; genPlusIncr
   01B7 11 65 00            683 	ld	de,#_listezone + 0 + 21
                            684 ; genAssign (pointer)
   01BA 3E B9               685 	ld	a,#<_ground2
   01BC 12                  686 	ld	(de),a
   01BD 13                  687 	inc	de
   01BE 3E 04               688 	ld	a,#>_ground2
   01C0 12                  689 	ld	(de),a
                            690 ; genPlus
                            691 ; genPlusIncr
   01C1 11 67 00            692 	ld	de,#_listezone + 0 + 23
                            693 ; genAssign (pointer)
   01C4 3E 00               694 	ld	a,#0x00
   01C6 12                  695 	ld	(de),a
                            696 ; genPlus
                            697 ; genPlusIncr
   01C7 11 68 00            698 	ld	de,#_listezone + 0 + 24
                            699 ; genAssign (pointer)
   01CA 3E 00               700 	ld	a,#0x00
   01CC 12                  701 	ld	(de),a
                            702 ; genPlus
                            703 ; genPlusIncr
   01CD 11 69 00            704 	ld	de,#_listezone + 0 + 25
                            705 ; genAssign (pointer)
   01D0 3E 00               706 	ld	a,#0x00
   01D2 12                  707 	ld	(de),a
                            708 ; genPlus
                            709 ; genPlusIncr
   01D3 11 6A 00            710 	ld	de,#_listezone + 0 + 26
                            711 ; genAssign (pointer)
   01D6 3E 00               712 	ld	a,#0x00
   01D8 12                  713 	ld	(de),a
                            714 ; genPlus
                            715 ; genPlusIncr
   01D9 11 6B 00            716 	ld	de,#_listezone + 0 + 27
                            717 ; genAssign (pointer)
   01DC 3E 04               718 	ld	a,#0x04
   01DE 12                  719 	ld	(de),a
                            720 ; genPlus
                            721 ; genPlusIncr
   01DF 11 6C 00            722 	ld	de,#_listezone + 0 + 28
                            723 ; genAssign (pointer)
   01E2 3E 21               724 	ld	a,#<_ground3
   01E4 12                  725 	ld	(de),a
   01E5 13                  726 	inc	de
   01E6 3E 06               727 	ld	a,#>_ground3
   01E8 12                  728 	ld	(de),a
                            729 ; genPlus
                            730 ; genPlusIncr
   01E9 11 6E 00            731 	ld	de,#_listezone + 0 + 30
                            732 ; genAssign (pointer)
   01EC 3E 00               733 	ld	a,#0x00
   01EE 12                  734 	ld	(de),a
                            735 ; genPlus
                            736 ; genPlusIncr
   01EF 11 6F 00            737 	ld	de,#_listezone + 0 + 31
                            738 ; genAssign (pointer)
   01F2 3E 00               739 	ld	a,#0x00
   01F4 12                  740 	ld	(de),a
                            741 ; genPlus
                            742 ; genPlusIncr
   01F5 11 70 00            743 	ld	de,#_listezone + 0 + 32
                            744 ; genAssign (pointer)
   01F8 3E 00               745 	ld	a,#0x00
   01FA 12                  746 	ld	(de),a
                            747 ; genPlus
                            748 ; genPlusIncr
   01FB 11 71 00            749 	ld	de,#_listezone + 0 + 33
                            750 ; genAssign (pointer)
   01FE 3E 03               751 	ld	a,#0x03
   0200 12                  752 	ld	(de),a
                            753 ; genPlus
                            754 ; genPlusIncr
   0201 11 72 00            755 	ld	de,#_listezone + 0 + 34
                            756 ; genAssign (pointer)
   0204 3E 00               757 	ld	a,#0x00
   0206 12                  758 	ld	(de),a
                            759 ;--------------------------------------------------------
                            760 ; Home
                            761 ;--------------------------------------------------------
                            762 	.area _HOME
                            763 ;	\\gbdk\\libc\\malloc.c 72
                            764 ; genLabel
                            765 ; genFunction
                            766 ;	---------------------------------
                            767 ; Function malloc_gc
                            768 ; ---------------------------------
   0000                     769 ___malloc_gc_start:
   0000                     770 _malloc_gc:
   0000 C5                  771 	push	bc
   0001 E8 E7               772 	lda	sp,-25(sp)
                            773 ;	\\gbdk\\libc\\malloc.c 85
                            774 ; genIpush
   0003 21 6B 01            775 	ld	hl,#__str_3 + 0
   0006 E5                  776 	push	hl
                            777 ; genIpush
   0007 21 61 01            778 	ld	hl,#__str_2 + 0
   000A E5                  779 	push	hl
                            780 ; genCall
   000B CD 00 00            781 	call	_debug
   000E E8 04               782 	lda	sp,4(sp)
                            783 ;	\\gbdk\\libc\\malloc.c 87
                            784 ; genLabel
   0010                     785 00112$:
                            786 ;	\\gbdk\\libc\\malloc.c 88
                            787 ; genAssign
                            788 ; AOP_HL for _malloc_first
                            789 ; AOP_STK for _malloc_gc_thisHunk_1_1
   0010 21 00 00            790 	ld	hl,#_malloc_first + 0
   0013 2A                  791 	ld	a,(hl+)
   0014 5E                  792 	ld	e,(hl)
   0015 F8 17               793 	lda	hl,23(sp)
   0017 22                  794 	ld	(hl+),a
   0018 73                  795 	ld	(hl),e
                            796 ;	\\gbdk\\libc\\malloc.c 89
                            797 ; genAssign
                            798 ; AOP_STK for _malloc_gc_changed_1_1
   0019 F8 14               799 	lda	hl,20(sp)
   001B 36 00               800 	ld	(hl),#0x00
                            801 ;	\\gbdk\\libc\\malloc.c 91
                            802 ; genLabel
   001D                     803 00107$:
                            804 ; genIfx
                            805 ; AOP_STK for _malloc_gc_thisHunk_1_1
   001D F8 17               806 	lda	hl,23(sp)
                            807 ; Rule 8
   001F 2A                  808 	ld	a,(hl+)
   0020 B6                  809 	or	a,(hl)
   0021 CA 41 01            810 	jp	z,00109$
                            811 ; genPointerGet
                            812 ; AOP_STK for _malloc_gc_thisHunk_1_1
                            813 ; AOP_STK for _malloc_gc_sloc0_1_0
   0024 2B                  814 	dec	hl
   0025 5E                  815 	ld	e,(hl)
   0026 23                  816 	inc	hl
   0027 56                  817 	ld	d,(hl)
   0028 1A                  818 	ld	a,(de)
   0029 F8 13               819 	lda	hl,19(sp)
   002B 77                  820 	ld	(hl),a
                            821 ; genCmpEq
                            822 ; AOP_STK for _malloc_gc_sloc0_1_0
                            823 ; AOP_STK for _malloc_gc_sloc1_1_0
   002C 7E                  824 	ld	a,(hl) ; 2
   002D FE 7B               825 	cp	a,#0x7B
   002F C2 36 00            826 	jp	nz,00125$
   0032 3E 01               827 	ld	a,#0x01
   0034 18 01               828 	jr	00126$
   0036                     829 00125$:
   0036 AF                  830 	xor	a,a
   0037                     831 00126$:
   0037 F8 12               832 	lda	hl,18(sp)
   0039 77                  833 	ld	(hl),a
                            834 ; genIfx
                            835 ; AOP_STK for _malloc_gc_sloc1_1_0
                            836 ; Removed redundent or a,a
   003A AF                  837 	xor	a,a
   003B B6                  838 	or	a,(hl)
   003C CA 41 01            839 	jp	z,00109$
                            840 ;	\\gbdk\\libc\\malloc.c 93
                            841 ; genPlus
                            842 ; AOP_STK for _malloc_gc_thisHunk_1_1
                            843 ; genPlusIncr
                            844 ;	genPlusIncr failed
   003F F8 17               845 	lda	hl,23(sp)
   0041 5E                  846 	ld	e,(hl)
   0042 23                  847 	inc	hl
   0043 56                  848 	ld	d,(hl)
   0044 21 05 00            849 	ld	hl,#0x0005
   0047 19                  850 	add	hl,de
   0048 5D                  851 	ld	e,l
   0049 54                  852 	ld	d,h
                            853 ; genPointerGet
                            854 ; AOP_STK for _malloc_gc_sloc3_1_0
                            855 ; Removed redundent load
                            856 ; Removed redundent load
   004A 1A                  857 	ld	a,(de)
   004B F8 0F               858 	lda	hl,15(sp)
   004D 77                  859 	ld	(hl),a
   004E 13                  860 	inc	de
   004F 1A                  861 	ld	a,(de)
   0050 23                  862 	inc	hl
   0051 77                  863 	ld	(hl),a
                            864 ; genCmpEq
                            865 ; AOP_STK for _malloc_gc_sloc3_1_0
                            866 ; AOP_STK for _malloc_gc_sloc2_1_0
   0052 2B                  867 	dec	hl
   0053 7E                  868 	ld	a,(hl) ; 2
   0054 FE 01               869 	cp	a,#0x01
   0056 C2 63 00            870 	jp	nz,00127$
   0059 23                  871 	inc	hl
   005A 7E                  872 	ld	a,(hl) ; 2
                            873 ; Rule 3
   005B B7                  874 	or	a,a
   005C C2 63 00            875 	jp	nz,00127$
   005F 3E 01               876 	ld	a,#0x01
   0061 18 01               877 	jr	00128$
   0063                     878 00127$:
   0063 AF                  879 	xor	a,a
   0064                     880 00128$:
   0064 F8 11               881 	lda	hl,17(sp)
   0066 77                  882 	ld	(hl),a
                            883 ; genIfx
                            884 ; AOP_STK for _malloc_gc_sloc2_1_0
                            885 ; Removed redundent or a,a
   0067 AF                  886 	xor	a,a
   0068 B6                  887 	or	a,(hl)
   0069 CA 2F 01            888 	jp	z,00105$
                            889 ;	\\gbdk\\libc\\malloc.c 95
                            890 ; genPlus
                            891 ; AOP_STK for _malloc_gc_thisHunk_1_1
                            892 ; AOP_STK for _malloc_gc_sloc4_1_0
                            893 ; genPlusIncr
                            894 ;	genPlusIncr failed
   006C F8 17               895 	lda	hl,23(sp)
   006E 5E                  896 	ld	e,(hl)
   006F 23                  897 	inc	hl
   0070 56                  898 	ld	d,(hl)
   0071 21 01 00            899 	ld	hl,#0x0001
   0074 19                  900 	add	hl,de
   0075 7D                  901 	ld	a,l
   0076 54                  902 	ld	d,h
   0077 F8 0D               903 	lda	hl,13(sp)
   0079 22                  904 	ld	(hl+),a
   007A 72                  905 	ld	(hl),d
                            906 ; genPointerGet
                            907 ; AOP_STK for _malloc_gc_sloc4_1_0
                            908 ; AOP_STK for _malloc_gc_nextHunk_1_1
   007B 2B                  909 	dec	hl
   007C 5E                  910 	ld	e,(hl)
   007D 23                  911 	inc	hl
   007E 56                  912 	ld	d,(hl)
   007F 1A                  913 	ld	a,(de)
   0080 F8 15               914 	lda	hl,21(sp)
   0082 77                  915 	ld	(hl),a
   0083 13                  916 	inc	de
   0084 1A                  917 	ld	a,(de)
   0085 23                  918 	inc	hl
                            919 ; genAssign
                            920 ; AOP_STK for _malloc_gc_nextHunk_1_1
                            921 ; (registers are the same)
                            922 ;	\\gbdk\\libc\\malloc.c 97
                            923 ; genPlus
                            924 ; AOP_STK for _malloc_gc_thisHunk_1_1
                            925 ; AOP_STK for _malloc_gc_sloc5_1_0
                            926 ; genPlusIncr
                            927 ;	genPlusIncr failed
   0086 22                  928 	ld	(hl+),a
   0087 5E                  929 	ld	e,(hl)
   0088 23                  930 	inc	hl
   0089 56                  931 	ld	d,(hl)
   008A 21 03 00            932 	ld	hl,#0x0003
   008D 19                  933 	add	hl,de
   008E 7D                  934 	ld	a,l
   008F 54                  935 	ld	d,h
   0090 F8 0B               936 	lda	hl,11(sp)
   0092 22                  937 	ld	(hl+),a
   0093 72                  938 	ld	(hl),d
                            939 ; genLabel
   0094                     940 00101$:
                            941 ; genPlus
                            942 ; AOP_STK for _malloc_gc_nextHunk_1_1
                            943 ; genPlusIncr
                            944 ;	genPlusIncr failed
   0094 F8 15               945 	lda	hl,21(sp)
   0096 5E                  946 	ld	e,(hl)
   0097 23                  947 	inc	hl
   0098 56                  948 	ld	d,(hl)
   0099 21 05 00            949 	ld	hl,#0x0005
   009C 19                  950 	add	hl,de
   009D 5D                  951 	ld	e,l
   009E 54                  952 	ld	d,h
                            953 ; genPointerGet
                            954 ; AOP_STK for _malloc_gc_sloc7_1_0
                            955 ; Removed redundent load
                            956 ; Removed redundent load
   009F 1A                  957 	ld	a,(de)
   00A0 F8 08               958 	lda	hl,8(sp)
   00A2 77                  959 	ld	(hl),a
   00A3 13                  960 	inc	de
   00A4 1A                  961 	ld	a,(de)
   00A5 23                  962 	inc	hl
   00A6 77                  963 	ld	(hl),a
                            964 ; genCmpEq
                            965 ; AOP_STK for _malloc_gc_sloc7_1_0
                            966 ; AOP_STK for _malloc_gc_sloc6_1_0
   00A7 2B                  967 	dec	hl
   00A8 7E                  968 	ld	a,(hl) ; 2
   00A9 FE 01               969 	cp	a,#0x01
   00AB C2 B8 00            970 	jp	nz,00129$
   00AE 23                  971 	inc	hl
   00AF 7E                  972 	ld	a,(hl) ; 2
                            973 ; Rule 3
   00B0 B7                  974 	or	a,a
   00B1 C2 B8 00            975 	jp	nz,00129$
   00B4 3E 01               976 	ld	a,#0x01
   00B6 18 01               977 	jr	00130$
   00B8                     978 00129$:
   00B8 AF                  979 	xor	a,a
   00B9                     980 00130$:
   00B9 F8 0A               981 	lda	hl,10(sp)
   00BB 77                  982 	ld	(hl),a
                            983 ; genIfx
                            984 ; AOP_STK for _malloc_gc_sloc6_1_0
                            985 ; Removed redundent or a,a
   00BC AF                  986 	xor	a,a
   00BD B6                  987 	or	a,(hl)
   00BE CA 2F 01            988 	jp	z,00105$
                            989 ;	\\gbdk\\libc\\malloc.c 99
                            990 ; genAssign
                            991 ; AOP_STK for _malloc_gc_changed_1_1
   00C1 F8 14               992 	lda	hl,20(sp)
   00C3 36 01               993 	ld	(hl),#0x01
                            994 ;	\\gbdk\\libc\\malloc.c 100
                            995 ; genPointerGet
                            996 ; AOP_STK for _malloc_gc_sloc5_1_0
                            997 ; AOP_STK for _malloc_gc_sloc8_1_0
   00C5 F8 0B               998 	lda	hl,11(sp)
   00C7 5E                  999 	ld	e,(hl)
   00C8 23                 1000 	inc	hl
   00C9 56                 1001 	ld	d,(hl)
   00CA 1A                 1002 	ld	a,(de)
   00CB F8 06              1003 	lda	hl,6(sp)
   00CD 77                 1004 	ld	(hl),a
   00CE 13                 1005 	inc	de
   00CF 1A                 1006 	ld	a,(de)
   00D0 23                 1007 	inc	hl
   00D1 77                 1008 	ld	(hl),a
                           1009 ; genPlus
                           1010 ; AOP_STK for _malloc_gc_nextHunk_1_1
                           1011 ; genPlusIncr
                           1012 ;	genPlusIncr failed
   00D2 F8 15              1013 	lda	hl,21(sp)
   00D4 5E                 1014 	ld	e,(hl)
   00D5 23                 1015 	inc	hl
   00D6 56                 1016 	ld	d,(hl)
   00D7 21 03 00           1017 	ld	hl,#0x0003
   00DA 19                 1018 	add	hl,de
   00DB 5D                 1019 	ld	e,l
   00DC 54                 1020 	ld	d,h
                           1021 ; genPointerGet
                           1022 ; AOP_STK for _malloc_gc_sloc10_1_0
                           1023 ; Removed redundent load
                           1024 ; Removed redundent load
   00DD 1A                 1025 	ld	a,(de)
   00DE F8 02              1026 	lda	hl,2(sp)
   00E0 77                 1027 	ld	(hl),a
   00E1 13                 1028 	inc	de
   00E2 1A                 1029 	ld	a,(de)
   00E3 23                 1030 	inc	hl
   00E4 77                 1031 	ld	(hl),a
                           1032 ; genPlus
                           1033 ; AOP_STK for _malloc_gc_sloc10_1_0
                           1034 ; AOP_STK for _malloc_gc_sloc9_1_0
                           1035 ; genPlusIncr
                           1036 ;	genPlusIncr failed
   00E5 2B                 1037 	dec	hl
   00E6 5E                 1038 	ld	e,(hl)
   00E7 23                 1039 	inc	hl
   00E8 56                 1040 	ld	d,(hl)
   00E9 21 07 00           1041 	ld	hl,#0x0007
   00EC 19                 1042 	add	hl,de
   00ED 7D                 1043 	ld	a,l
   00EE 54                 1044 	ld	d,h
   00EF F8 04              1045 	lda	hl,4(sp)
   00F1 22                 1046 	ld	(hl+),a
   00F2 72                 1047 	ld	(hl),d
                           1048 ; genPlus
                           1049 ; AOP_STK for _malloc_gc_sloc8_1_0
                           1050 ; AOP_STK for _malloc_gc_sloc9_1_0
                           1051 ; AOP_STK for _malloc_gc_sloc11_1_0
                           1052 ;	genPlusIncr failed
   00F3 23                 1053 	inc	hl
   00F4 5E                 1054 	ld	e,(hl)
   00F5 23                 1055 	inc	hl
   00F6 56                 1056 	ld	d,(hl)
   00F7 F8 04              1057 	lda	hl,4(sp)
   00F9 2A                 1058 	ld	a,(hl+)
   00FA 66                 1059 	ld	h,(hl)
   00FB 6F                 1060 	ld	l,a
   00FC 19                 1061 	add	hl,de
   00FD 7D                 1062 	ld	a,l
   00FE 54                 1063 	ld	d,h
   00FF F8 00              1064 	lda	hl,0(sp)
   0101 22                 1065 	ld	(hl+),a
   0102 72                 1066 	ld	(hl),d
                           1067 ; genAssign (pointer)
                           1068 ; AOP_STK for _malloc_gc_sloc5_1_0
                           1069 ; AOP_STK for _malloc_gc_sloc11_1_0
   0103 F8 0B              1070 	lda	hl,11(sp)
   0105 5E                 1071 	ld	e,(hl)
   0106 23                 1072 	inc	hl
   0107 56                 1073 	ld	d,(hl)
   0108 F8 00              1074 	lda	hl,0(sp)
   010A 7E                 1075 	ld	a,(hl)
   010B 12                 1076 	ld	(de),a
   010C 13                 1077 	inc	de
   010D 23                 1078 	inc	hl
   010E 7E                 1079 	ld	a,(hl)
   010F 12                 1080 	ld	(de),a
                           1081 ;	\\gbdk\\libc\\malloc.c 101
                           1082 ; genPlus
                           1083 ; AOP_STK for _malloc_gc_nextHunk_1_1
                           1084 ; genPlusIncr
   0110 F8 15              1085 	lda	hl,21(sp)
   0112 5E                 1086 	ld	e,(hl)
   0113 23                 1087 	inc	hl
   0114 56                 1088 	ld	d,(hl)
   0115 13                 1089 	inc	de
                           1090 ; genPointerGet
                           1091 ; Removed redundent load
                           1092 ; Removed redundent load
   0116 1A                 1093 	ld	a,(de)
   0117 4F                 1094 	ld	c,a
   0118 13                 1095 	inc	de
   0119 1A                 1096 	ld	a,(de)
   011A 47                 1097 	ld	b,a
                           1098 ; genAssign
                           1099 ; AOP_STK for _malloc_gc_nextHunk_1_1
   011B 2B                 1100 	dec	hl
   011C 71                 1101 	ld	(hl),c
   011D 23                 1102 	inc	hl
   011E 70                 1103 	ld	(hl),b
                           1104 ;	\\gbdk\\libc\\malloc.c 102
                           1105 ; genAssign (pointer)
                           1106 ; AOP_STK for _malloc_gc_sloc4_1_0
                           1107 ; AOP_STK for _malloc_gc_nextHunk_1_1
   011F F8 0D              1108 	lda	hl,13(sp)
   0121 5E                 1109 	ld	e,(hl)
   0122 23                 1110 	inc	hl
   0123 56                 1111 	ld	d,(hl)
   0124 F8 15              1112 	lda	hl,21(sp)
   0126 7E                 1113 	ld	a,(hl)
   0127 12                 1114 	ld	(de),a
   0128 13                 1115 	inc	de
   0129 23                 1116 	inc	hl
   012A 7E                 1117 	ld	a,(hl)
   012B 12                 1118 	ld	(de),a
                           1119 ; genGoto
   012C C3 94 00           1120 	jp	00101$
                           1121 ; genLabel
   012F                    1122 00105$:
                           1123 ;	\\gbdk\\libc\\malloc.c 105
                           1124 ; genPlus
                           1125 ; AOP_STK for _malloc_gc_thisHunk_1_1
                           1126 ; genPlusIncr
   012F F8 17              1127 	lda	hl,23(sp)
   0131 5E                 1128 	ld	e,(hl)
   0132 23                 1129 	inc	hl
   0133 56                 1130 	ld	d,(hl)
   0134 13                 1131 	inc	de
                           1132 ; genPointerGet
                           1133 ; Removed redundent load
                           1134 ; Removed redundent load
   0135 1A                 1135 	ld	a,(de)
   0136 4F                 1136 	ld	c,a
   0137 13                 1137 	inc	de
   0138 1A                 1138 	ld	a,(de)
   0139 47                 1139 	ld	b,a
                           1140 ; genAssign
                           1141 ; AOP_STK for _malloc_gc_thisHunk_1_1
   013A 2B                 1142 	dec	hl
   013B 71                 1143 	ld	(hl),c
   013C 23                 1144 	inc	hl
   013D 70                 1145 	ld	(hl),b
                           1146 ; genGoto
   013E C3 1D 00           1147 	jp	00107$
                           1148 ; genLabel
   0141                    1149 00109$:
                           1150 ;	\\gbdk\\libc\\malloc.c 108
                           1151 ; genCmpEq
                           1152 ; AOP_STK for _malloc_gc_thisHunk_1_1
   0141 F8 17              1153 	lda	hl,23(sp)
   0143 2A                 1154 	ld	a,(hl+)
   0144 B6                 1155 	or	a,(hl)
                           1156 ; Rule 5
   0145 CA 55 01           1157 	jp	z,00113$
   0148                    1158 00131$:
                           1159 ;	\\gbdk\\libc\\malloc.c 109
                           1160 ; genIpush
   0148 21 7D 01           1161 	ld	hl,#__str_5 + 0
   014B E5                 1162 	push	hl
                           1163 ; genIpush
   014C 21 73 01           1164 	ld	hl,#__str_4 + 0
   014F E5                 1165 	push	hl
                           1166 ; genCall
   0150 CD 00 00           1167 	call	_debug
   0153 E8 04              1168 	lda	sp,4(sp)
                           1169 ; genLabel
   0155                    1170 00113$:
                           1171 ;	\\gbdk\\libc\\malloc.c 110
                           1172 ; genIfx
                           1173 ; AOP_STK for _malloc_gc_changed_1_1
   0155 AF                 1174 	xor	a,a
   0156 F8 14              1175 	lda	hl,20(sp)
   0158 B6                 1176 	or	a,(hl)
   0159 B7                 1177 	or	a,a
   015A C2 10 00           1178 	jp	nz,00112$
                           1179 ; genLabel
   015D                    1180 00115$:
                           1181 ; genEndFunction
   015D E8 19              1182 	lda	sp,25(sp)
   015F C1                 1183 	pop	bc
   0160 C9                 1184 	ret
   0161                    1185 ___malloc_gc_end:
   0161                    1186 __str_2:
   0161 6D 61 6C 6C 6F 63  1187 	.ascii "malloc_gc"
        5F 67 63
   016A 00                 1188 	.db 0x00
   016B                    1189 __str_3:
   016B 52 75 6E 6E 69 6E  1190 	.ascii "Running"
        67
   0172 00                 1191 	.db 0x00
   0173                    1192 __str_4:
   0173 6D 61 6C 6C 6F 63  1193 	.ascii "malloc_gc"
        5F 67 63
   017C 00                 1194 	.db 0x00
   017D                    1195 __str_5:
   017D 43 6F 72 72 75 70  1196 	.ascii "Corrupted malloc list found."
        74 65 64 20 6D 61
        6C 6C 6F 63 20 6C
        69 73 74 20 66 6F
        75 6E 64 2E
   0199 00                 1197 	.db 0x00
                           1198 	.area _CODE
                           1199 ;--------------------------------------------------------
                           1200 ; code
                           1201 ;--------------------------------------------------------
                           1202 	.area _CODE
                           1203 ;	\\gbdk\\libc\\malloc.c 27
                           1204 ; genLabel
                           1205 ; genFunction
                           1206 ;	---------------------------------
                           1207 ; Function debug
                           1208 ; ---------------------------------
   0000                    1209 ___debug_start:
   0000                    1210 _debug:
                           1211 	
                           1212 ;	\\gbdk\\libc\\malloc.c 31
                           1213 ; genLabel
   0000                    1214 00101$:
                           1215 ; genEndFunction
                           1216 	
   0000 C9                 1217 	ret
   0001                    1218 ___debug_end:
   0001                    1219 _groundtiles:
   0001 00                 1220 	.db #0x00
   0002 00                 1221 	.db #0x00
   0003 12                 1222 	.db #0x12
   0004 01                 1223 	.db #0x01
   0005 14                 1224 	.db #0x14
   0006 02                 1225 	.db #0x02
   0007 54                 1226 	.db #0x54
   0008 80                 1227 	.db #0x80
   0009 2C                 1228 	.db #0x2C
   000A 00                 1229 	.db #0x00
   000B 28                 1230 	.db #0x28
   000C 00                 1231 	.db #0x00
   000D 00                 1232 	.db #0x00
   000E 30                 1233 	.db #0x30
   000F 00                 1234 	.db #0x00
   0010 00                 1235 	.db #0x00
   0011 00                 1236 	.db #0x00
   0012 00                 1237 	.db #0x00
   0013 08                 1238 	.db #0x08
   0014 00                 1239 	.db #0x00
   0015 0C                 1240 	.db #0x0C
   0016 C0                 1241 	.db #0xC0
   0017 46                 1242 	.db #0x46
   0018 08                 1243 	.db #0x08
   0019 60                 1244 	.db #0x60
   001A 08                 1245 	.db #0x08
   001B 2A                 1246 	.db #0x2A
   001C 00                 1247 	.db #0x00
   001D 0E                 1248 	.db #0x0E
   001E 00                 1249 	.db #0x00
   001F 00                 1250 	.db #0x00
   0020 00                 1251 	.db #0x00
   0021 00                 1252 	.db #0x00
   0022 00                 1253 	.db #0x00
   0023 0E                 1254 	.db #0x0E
   0024 00                 1255 	.db #0x00
   0025 42                 1256 	.db #0x42
   0026 00                 1257 	.db #0x00
   0027 2A                 1258 	.db #0x2A
   0028 04                 1259 	.db #0x04
   0029 20                 1260 	.db #0x20
   002A 00                 1261 	.db #0x00
   002B 06                 1262 	.db #0x06
   002C 08                 1263 	.db #0x08
   002D 40                 1264 	.db #0x40
   002E 00                 1265 	.db #0x00
   002F 00                 1266 	.db #0x00
   0030 00                 1267 	.db #0x00
   0031 FF                 1268 	.db #0xFF
   0032 FF                 1269 	.db #0xFF
   0033 FF                 1270 	.db #0xFF
   0034 FF                 1271 	.db #0xFF
   0035 FF                 1272 	.db #0xFF
   0036 FF                 1273 	.db #0xFF
   0037 FF                 1274 	.db #0xFF
   0038 FF                 1275 	.db #0xFF
   0039 FF                 1276 	.db #0xFF
   003A FF                 1277 	.db #0xFF
   003B FF                 1278 	.db #0xFF
   003C FF                 1279 	.db #0xFF
   003D FF                 1280 	.db #0xFF
   003E FF                 1281 	.db #0xFF
   003F FF                 1282 	.db #0xFF
   0040 FF                 1283 	.db #0xFF
   0041 FF                 1284 	.db #0xFF
   0042 7E                 1285 	.db #0x7E
   0043 FF                 1286 	.db #0xFF
   0044 C1                 1287 	.db #0xC1
   0045 FF                 1288 	.db #0xFF
   0046 9C                 1289 	.db #0x9C
   0047 FF                 1290 	.db #0xFF
   0048 A2                 1291 	.db #0xA2
   0049 F7                 1292 	.db #0xF7
   004A AA                 1293 	.db #0xAA
   004B FF                 1294 	.db #0xFF
   004C 9A                 1295 	.db #0x9A
   004D FF                 1296 	.db #0xFF
   004E C2                 1297 	.db #0xC2
   004F FF                 1298 	.db #0xFF
   0050 7C                 1299 	.db #0x7C
   0051 FF                 1300 	.db #0xFF
   0052 FF                 1301 	.db #0xFF
   0053 A1                 1302 	.db #0xA1
   0054 FF                 1303 	.db #0xFF
   0055 FF                 1304 	.db #0xFF
   0056 FF                 1305 	.db #0xFF
   0057 85                 1306 	.db #0x85
   0058 FF                 1307 	.db #0xFF
   0059 85                 1308 	.db #0x85
   005A FF                 1309 	.db #0xFF
   005B FF                 1310 	.db #0xFF
   005C FF                 1311 	.db #0xFF
   005D A1                 1312 	.db #0xA1
   005E FF                 1313 	.db #0xFF
   005F FF                 1314 	.db #0xFF
   0060 FF                 1315 	.db #0xFF
   0061 00                 1316 	.db #0x00
   0062 00                 1317 	.db #0x00
   0063 40                 1318 	.db #0x40
   0064 00                 1319 	.db #0x00
   0065 40                 1320 	.db #0x40
   0066 00                 1321 	.db #0x00
   0067 44                 1322 	.db #0x44
   0068 00                 1323 	.db #0x00
   0069 54                 1324 	.db #0x54
   006A 00                 1325 	.db #0x00
   006B 14                 1326 	.db #0x14
   006C 00                 1327 	.db #0x00
   006D 04                 1328 	.db #0x04
   006E 00                 1329 	.db #0x00
   006F 00                 1330 	.db #0x00
   0070 00                 1331 	.db #0x00
   0071                    1332 _virgule:
   0071 00                 1333 	.db #0x00
   0072 00                 1334 	.db #0x00
   0073 00                 1335 	.db #0x00
   0074 00                 1336 	.db #0x00
   0075 00                 1337 	.db #0x00
   0076 00                 1338 	.db #0x00
   0077 00                 1339 	.db #0x00
   0078 00                 1340 	.db #0x00
   0079 00                 1341 	.db #0x00
   007A 00                 1342 	.db #0x00
   007B 00                 1343 	.db #0x00
   007C 00                 1344 	.db #0x00
   007D 20                 1345 	.db #0x20
   007E 20                 1346 	.db #0x20
   007F 40                 1347 	.db #0x40
   0080 40                 1348 	.db #0x40
   0081                    1349 _room:
   0081 2A                 1350 	.db #0x2A
   0082 2A                 1351 	.db #0x2A
   0083 2A                 1352 	.db #0x2A
   0084 2A                 1353 	.db #0x2A
   0085 2A                 1354 	.db #0x2A
   0086 2A                 1355 	.db #0x2A
   0087 2A                 1356 	.db #0x2A
   0088 2A                 1357 	.db #0x2A
   0089 2A                 1358 	.db #0x2A
   008A 2A                 1359 	.db #0x2A
   008B 2A                 1360 	.db #0x2A
   008C 2A                 1361 	.db #0x2A
   008D 2A                 1362 	.db #0x2A
   008E 2A                 1363 	.db #0x2A
   008F 2A                 1364 	.db #0x2A
   0090 2A                 1365 	.db #0x2A
   0091 2A                 1366 	.db #0x2A
   0092 2A                 1367 	.db #0x2A
   0093 2A                 1368 	.db #0x2A
   0094 2A                 1369 	.db #0x2A
   0095 2A                 1370 	.db #0x2A
   0096 2A                 1371 	.db #0x2A
   0097 2A                 1372 	.db #0x2A
   0098 2A                 1373 	.db #0x2A
   0099 2A                 1374 	.db #0x2A
   009A 2A                 1375 	.db #0x2A
   009B 2A                 1376 	.db #0x2A
   009C 2A                 1377 	.db #0x2A
   009D 2A                 1378 	.db #0x2A
   009E 2A                 1379 	.db #0x2A
   009F 2A                 1380 	.db #0x2A
   00A0 2A                 1381 	.db #0x2A
   00A1 2A                 1382 	.db #0x2A
   00A2 2A                 1383 	.db #0x2A
   00A3 2A                 1384 	.db #0x2A
   00A4 2A                 1385 	.db #0x2A
   00A5 2A                 1386 	.db #0x2A
   00A6 2A                 1387 	.db #0x2A
   00A7 2A                 1388 	.db #0x2A
   00A8 2A                 1389 	.db #0x2A
   00A9 2A                 1390 	.db #0x2A
   00AA 2A                 1391 	.db #0x2A
   00AB 2A                 1392 	.db #0x2A
   00AC 2D                 1393 	.db #0x2D
   00AD 2D                 1394 	.db #0x2D
   00AE 2D                 1395 	.db #0x2D
   00AF 2D                 1396 	.db #0x2D
   00B0 2D                 1397 	.db #0x2D
   00B1 2D                 1398 	.db #0x2D
   00B2 2D                 1399 	.db #0x2D
   00B3 2D                 1400 	.db #0x2D
   00B4 2D                 1401 	.db #0x2D
   00B5 2D                 1402 	.db #0x2D
   00B6 2D                 1403 	.db #0x2D
   00B7 2D                 1404 	.db #0x2D
   00B8 2D                 1405 	.db #0x2D
   00B9 2D                 1406 	.db #0x2D
   00BA 2A                 1407 	.db #0x2A
   00BB 2A                 1408 	.db #0x2A
   00BC 2A                 1409 	.db #0x2A
   00BD 2A                 1410 	.db #0x2A
   00BE 2A                 1411 	.db #0x2A
   00BF 2A                 1412 	.db #0x2A
   00C0 2D                 1413 	.db #0x2D
   00C1 2D                 1414 	.db #0x2D
   00C2 2D                 1415 	.db #0x2D
   00C3 2D                 1416 	.db #0x2D
   00C4 2D                 1417 	.db #0x2D
   00C5 2D                 1418 	.db #0x2D
   00C6 2D                 1419 	.db #0x2D
   00C7 2D                 1420 	.db #0x2D
   00C8 2D                 1421 	.db #0x2D
   00C9 2D                 1422 	.db #0x2D
   00CA 2D                 1423 	.db #0x2D
   00CB 2D                 1424 	.db #0x2D
   00CC 2D                 1425 	.db #0x2D
   00CD 2D                 1426 	.db #0x2D
   00CE 2A                 1427 	.db #0x2A
   00CF 2A                 1428 	.db #0x2A
   00D0 2A                 1429 	.db #0x2A
   00D1 2A                 1430 	.db #0x2A
   00D2 2A                 1431 	.db #0x2A
   00D3 2A                 1432 	.db #0x2A
   00D4 2D                 1433 	.db #0x2D
   00D5 2D                 1434 	.db #0x2D
   00D6 2D                 1435 	.db #0x2D
   00D7 2D                 1436 	.db #0x2D
   00D8 2D                 1437 	.db #0x2D
   00D9 2D                 1438 	.db #0x2D
   00DA 2D                 1439 	.db #0x2D
   00DB 2D                 1440 	.db #0x2D
   00DC 2D                 1441 	.db #0x2D
   00DD 2D                 1442 	.db #0x2D
   00DE 2D                 1443 	.db #0x2D
   00DF 2D                 1444 	.db #0x2D
   00E0 2D                 1445 	.db #0x2D
   00E1 2D                 1446 	.db #0x2D
   00E2 2A                 1447 	.db #0x2A
   00E3 2A                 1448 	.db #0x2A
   00E4 2A                 1449 	.db #0x2A
   00E5 2A                 1450 	.db #0x2A
   00E6 2A                 1451 	.db #0x2A
   00E7 2A                 1452 	.db #0x2A
   00E8 2D                 1453 	.db #0x2D
   00E9 2D                 1454 	.db #0x2D
   00EA 2D                 1455 	.db #0x2D
   00EB 2D                 1456 	.db #0x2D
   00EC 2D                 1457 	.db #0x2D
   00ED 2D                 1458 	.db #0x2D
   00EE 2D                 1459 	.db #0x2D
   00EF 2D                 1460 	.db #0x2D
   00F0 2D                 1461 	.db #0x2D
   00F1 2D                 1462 	.db #0x2D
   00F2 2D                 1463 	.db #0x2D
   00F3 2D                 1464 	.db #0x2D
   00F4 2D                 1465 	.db #0x2D
   00F5 2D                 1466 	.db #0x2D
   00F6 2A                 1467 	.db #0x2A
   00F7 2A                 1468 	.db #0x2A
   00F8 2A                 1469 	.db #0x2A
   00F9 2A                 1470 	.db #0x2A
   00FA 2A                 1471 	.db #0x2A
   00FB 2A                 1472 	.db #0x2A
   00FC 2D                 1473 	.db #0x2D
   00FD 2D                 1474 	.db #0x2D
   00FE 2D                 1475 	.db #0x2D
   00FF 2D                 1476 	.db #0x2D
   0100 2D                 1477 	.db #0x2D
   0101 2D                 1478 	.db #0x2D
   0102 2D                 1479 	.db #0x2D
   0103 2D                 1480 	.db #0x2D
   0104 2D                 1481 	.db #0x2D
   0105 2D                 1482 	.db #0x2D
   0106 2D                 1483 	.db #0x2D
   0107 2D                 1484 	.db #0x2D
   0108 2D                 1485 	.db #0x2D
   0109 2D                 1486 	.db #0x2D
   010A 2A                 1487 	.db #0x2A
   010B 2A                 1488 	.db #0x2A
   010C 2A                 1489 	.db #0x2A
   010D 2A                 1490 	.db #0x2A
   010E 2A                 1491 	.db #0x2A
   010F 2A                 1492 	.db #0x2A
   0110 2D                 1493 	.db #0x2D
   0111 2D                 1494 	.db #0x2D
   0112 2D                 1495 	.db #0x2D
   0113 2D                 1496 	.db #0x2D
   0114 2D                 1497 	.db #0x2D
   0115 2D                 1498 	.db #0x2D
   0116 2D                 1499 	.db #0x2D
   0117 2D                 1500 	.db #0x2D
   0118 2D                 1501 	.db #0x2D
   0119 2D                 1502 	.db #0x2D
   011A 2D                 1503 	.db #0x2D
   011B 2D                 1504 	.db #0x2D
   011C 2D                 1505 	.db #0x2D
   011D 2D                 1506 	.db #0x2D
   011E 2A                 1507 	.db #0x2A
   011F 2A                 1508 	.db #0x2A
   0120 2A                 1509 	.db #0x2A
   0121 2A                 1510 	.db #0x2A
   0122 2A                 1511 	.db #0x2A
   0123 2A                 1512 	.db #0x2A
   0124 2D                 1513 	.db #0x2D
   0125 2D                 1514 	.db #0x2D
   0126 2D                 1515 	.db #0x2D
   0127 2D                 1516 	.db #0x2D
   0128 2D                 1517 	.db #0x2D
   0129 2D                 1518 	.db #0x2D
   012A 2D                 1519 	.db #0x2D
   012B 2D                 1520 	.db #0x2D
   012C 2D                 1521 	.db #0x2D
   012D 2D                 1522 	.db #0x2D
   012E 2D                 1523 	.db #0x2D
   012F 2D                 1524 	.db #0x2D
   0130 2D                 1525 	.db #0x2D
   0131 2D                 1526 	.db #0x2D
   0132 2A                 1527 	.db #0x2A
   0133 2A                 1528 	.db #0x2A
   0134 2A                 1529 	.db #0x2A
   0135 2A                 1530 	.db #0x2A
   0136 2A                 1531 	.db #0x2A
   0137 2A                 1532 	.db #0x2A
   0138 2D                 1533 	.db #0x2D
   0139 2D                 1534 	.db #0x2D
   013A 2D                 1535 	.db #0x2D
   013B 2D                 1536 	.db #0x2D
   013C 2D                 1537 	.db #0x2D
   013D 2D                 1538 	.db #0x2D
   013E 2D                 1539 	.db #0x2D
   013F 2D                 1540 	.db #0x2D
   0140 2D                 1541 	.db #0x2D
   0141 2D                 1542 	.db #0x2D
   0142 2D                 1543 	.db #0x2D
   0143 2D                 1544 	.db #0x2D
   0144 2D                 1545 	.db #0x2D
   0145 2D                 1546 	.db #0x2D
   0146 2A                 1547 	.db #0x2A
   0147 2A                 1548 	.db #0x2A
   0148 2A                 1549 	.db #0x2A
   0149 2A                 1550 	.db #0x2A
   014A 2A                 1551 	.db #0x2A
   014B 2A                 1552 	.db #0x2A
   014C 2D                 1553 	.db #0x2D
   014D 2D                 1554 	.db #0x2D
   014E 2D                 1555 	.db #0x2D
   014F 2D                 1556 	.db #0x2D
   0150 2D                 1557 	.db #0x2D
   0151 2D                 1558 	.db #0x2D
   0152 2D                 1559 	.db #0x2D
   0153 2D                 1560 	.db #0x2D
   0154 2D                 1561 	.db #0x2D
   0155 2D                 1562 	.db #0x2D
   0156 2D                 1563 	.db #0x2D
   0157 2D                 1564 	.db #0x2D
   0158 2D                 1565 	.db #0x2D
   0159 2D                 1566 	.db #0x2D
   015A 2A                 1567 	.db #0x2A
   015B 2A                 1568 	.db #0x2A
   015C 2A                 1569 	.db #0x2A
   015D 2A                 1570 	.db #0x2A
   015E 2A                 1571 	.db #0x2A
   015F 2A                 1572 	.db #0x2A
   0160 2D                 1573 	.db #0x2D
   0161 2D                 1574 	.db #0x2D
   0162 2D                 1575 	.db #0x2D
   0163 2D                 1576 	.db #0x2D
   0164 2D                 1577 	.db #0x2D
   0165 2D                 1578 	.db #0x2D
   0166 2D                 1579 	.db #0x2D
   0167 2D                 1580 	.db #0x2D
   0168 2D                 1581 	.db #0x2D
   0169 2D                 1582 	.db #0x2D
   016A 2D                 1583 	.db #0x2D
   016B 2D                 1584 	.db #0x2D
   016C 2D                 1585 	.db #0x2D
   016D 2D                 1586 	.db #0x2D
   016E 2A                 1587 	.db #0x2A
   016F 2A                 1588 	.db #0x2A
   0170 2A                 1589 	.db #0x2A
   0171 2A                 1590 	.db #0x2A
   0172 2A                 1591 	.db #0x2A
   0173 2B                 1592 	.db #0x2B
   0174 2D                 1593 	.db #0x2D
   0175 2D                 1594 	.db #0x2D
   0176 2D                 1595 	.db #0x2D
   0177 2D                 1596 	.db #0x2D
   0178 2D                 1597 	.db #0x2D
   0179 2D                 1598 	.db #0x2D
   017A 2D                 1599 	.db #0x2D
   017B 2D                 1600 	.db #0x2D
   017C 2D                 1601 	.db #0x2D
   017D 2D                 1602 	.db #0x2D
   017E 2D                 1603 	.db #0x2D
   017F 2D                 1604 	.db #0x2D
   0180 2D                 1605 	.db #0x2D
   0181 2D                 1606 	.db #0x2D
   0182 2A                 1607 	.db #0x2A
   0183 2A                 1608 	.db #0x2A
   0184 2A                 1609 	.db #0x2A
   0185 2A                 1610 	.db #0x2A
   0186 2A                 1611 	.db #0x2A
   0187 2A                 1612 	.db #0x2A
   0188 2D                 1613 	.db #0x2D
   0189 2D                 1614 	.db #0x2D
   018A 2D                 1615 	.db #0x2D
   018B 2D                 1616 	.db #0x2D
   018C 2D                 1617 	.db #0x2D
   018D 2D                 1618 	.db #0x2D
   018E 2D                 1619 	.db #0x2D
   018F 2D                 1620 	.db #0x2D
   0190 2D                 1621 	.db #0x2D
   0191 2D                 1622 	.db #0x2D
   0192 2D                 1623 	.db #0x2D
   0193 2D                 1624 	.db #0x2D
   0194 2D                 1625 	.db #0x2D
   0195 2D                 1626 	.db #0x2D
   0196 2A                 1627 	.db #0x2A
   0197 2A                 1628 	.db #0x2A
   0198 2A                 1629 	.db #0x2A
   0199 2A                 1630 	.db #0x2A
   019A 2A                 1631 	.db #0x2A
   019B 2A                 1632 	.db #0x2A
   019C 2A                 1633 	.db #0x2A
   019D 2A                 1634 	.db #0x2A
   019E 2A                 1635 	.db #0x2A
   019F 2A                 1636 	.db #0x2A
   01A0 2A                 1637 	.db #0x2A
   01A1 2A                 1638 	.db #0x2A
   01A2 2A                 1639 	.db #0x2A
   01A3 2A                 1640 	.db #0x2A
   01A4 2A                 1641 	.db #0x2A
   01A5 2A                 1642 	.db #0x2A
   01A6 2A                 1643 	.db #0x2A
   01A7 2A                 1644 	.db #0x2A
   01A8 2A                 1645 	.db #0x2A
   01A9 2A                 1646 	.db #0x2A
   01AA 2A                 1647 	.db #0x2A
   01AB 2A                 1648 	.db #0x2A
   01AC 2A                 1649 	.db #0x2A
   01AD 2A                 1650 	.db #0x2A
   01AE 2A                 1651 	.db #0x2A
   01AF 2A                 1652 	.db #0x2A
   01B0 2A                 1653 	.db #0x2A
   01B1 2A                 1654 	.db #0x2A
   01B2 2A                 1655 	.db #0x2A
   01B3 2A                 1656 	.db #0x2A
   01B4 2A                 1657 	.db #0x2A
   01B5 2A                 1658 	.db #0x2A
   01B6 2A                 1659 	.db #0x2A
   01B7 2A                 1660 	.db #0x2A
   01B8 2A                 1661 	.db #0x2A
   01B9 2A                 1662 	.db #0x2A
   01BA 2A                 1663 	.db #0x2A
   01BB 2A                 1664 	.db #0x2A
   01BC 2A                 1665 	.db #0x2A
   01BD 2A                 1666 	.db #0x2A
   01BE 2A                 1667 	.db #0x2A
   01BF 2A                 1668 	.db #0x2A
   01C0 2A                 1669 	.db #0x2A
   01C1 2A                 1670 	.db #0x2A
   01C2 2A                 1671 	.db #0x2A
   01C3 2A                 1672 	.db #0x2A
   01C4 2A                 1673 	.db #0x2A
   01C5 2A                 1674 	.db #0x2A
   01C6 2A                 1675 	.db #0x2A
   01C7 2A                 1676 	.db #0x2A
   01C8 2A                 1677 	.db #0x2A
   01C9 2A                 1678 	.db #0x2A
   01CA 2A                 1679 	.db #0x2A
   01CB 2A                 1680 	.db #0x2A
   01CC 2A                 1681 	.db #0x2A
   01CD 2A                 1682 	.db #0x2A
   01CE 2A                 1683 	.db #0x2A
   01CF 2A                 1684 	.db #0x2A
   01D0 2A                 1685 	.db #0x2A
   01D1 2A                 1686 	.db #0x2A
   01D2 2A                 1687 	.db #0x2A
   01D3 2A                 1688 	.db #0x2A
   01D4 2A                 1689 	.db #0x2A
   01D5 2A                 1690 	.db #0x2A
   01D6 2A                 1691 	.db #0x2A
   01D7 2A                 1692 	.db #0x2A
   01D8 2A                 1693 	.db #0x2A
   01D9 2A                 1694 	.db #0x2A
   01DA 2A                 1695 	.db #0x2A
   01DB 2A                 1696 	.db #0x2A
   01DC 2A                 1697 	.db #0x2A
   01DD 2A                 1698 	.db #0x2A
   01DE 2A                 1699 	.db #0x2A
   01DF 2A                 1700 	.db #0x2A
   01E0 2A                 1701 	.db #0x2A
   01E1 2A                 1702 	.db #0x2A
   01E2 2A                 1703 	.db #0x2A
   01E3 2A                 1704 	.db #0x2A
   01E4 2A                 1705 	.db #0x2A
   01E5 2A                 1706 	.db #0x2A
   01E6 2A                 1707 	.db #0x2A
   01E7 2A                 1708 	.db #0x2A
   01E8 2A                 1709 	.db #0x2A
   01E9                    1710 _room2:
   01E9 2A                 1711 	.db #0x2A
   01EA 2A                 1712 	.db #0x2A
   01EB 2A                 1713 	.db #0x2A
   01EC 2A                 1714 	.db #0x2A
   01ED 2A                 1715 	.db #0x2A
   01EE 2A                 1716 	.db #0x2A
   01EF 2A                 1717 	.db #0x2A
   01F0 2A                 1718 	.db #0x2A
   01F1 2A                 1719 	.db #0x2A
   01F2 2A                 1720 	.db #0x2A
   01F3 2A                 1721 	.db #0x2A
   01F4 2A                 1722 	.db #0x2A
   01F5 2A                 1723 	.db #0x2A
   01F6 2A                 1724 	.db #0x2A
   01F7 2A                 1725 	.db #0x2A
   01F8 2A                 1726 	.db #0x2A
   01F9 2A                 1727 	.db #0x2A
   01FA 2A                 1728 	.db #0x2A
   01FB 2A                 1729 	.db #0x2A
   01FC 2A                 1730 	.db #0x2A
   01FD 2A                 1731 	.db #0x2A
   01FE 2A                 1732 	.db #0x2A
   01FF 2A                 1733 	.db #0x2A
   0200 2A                 1734 	.db #0x2A
   0201 2A                 1735 	.db #0x2A
   0202 2A                 1736 	.db #0x2A
   0203 2A                 1737 	.db #0x2A
   0204 2A                 1738 	.db #0x2A
   0205 2A                 1739 	.db #0x2A
   0206 2A                 1740 	.db #0x2A
   0207 2A                 1741 	.db #0x2A
   0208 2A                 1742 	.db #0x2A
   0209 2A                 1743 	.db #0x2A
   020A 2A                 1744 	.db #0x2A
   020B 2A                 1745 	.db #0x2A
   020C 2A                 1746 	.db #0x2A
   020D 2A                 1747 	.db #0x2A
   020E 2A                 1748 	.db #0x2A
   020F 2A                 1749 	.db #0x2A
   0210 2A                 1750 	.db #0x2A
   0211 2A                 1751 	.db #0x2A
   0212 2A                 1752 	.db #0x2A
   0213 2A                 1753 	.db #0x2A
   0214 2A                 1754 	.db #0x2A
   0215 2A                 1755 	.db #0x2A
   0216 2A                 1756 	.db #0x2A
   0217 2A                 1757 	.db #0x2A
   0218 2A                 1758 	.db #0x2A
   0219 2D                 1759 	.db #0x2D
   021A 2D                 1760 	.db #0x2D
   021B 2D                 1761 	.db #0x2D
   021C 2D                 1762 	.db #0x2D
   021D 2D                 1763 	.db #0x2D
   021E 2D                 1764 	.db #0x2D
   021F 2A                 1765 	.db #0x2A
   0220 2A                 1766 	.db #0x2A
   0221 2A                 1767 	.db #0x2A
   0222 2A                 1768 	.db #0x2A
   0223 2A                 1769 	.db #0x2A
   0224 2A                 1770 	.db #0x2A
   0225 2A                 1771 	.db #0x2A
   0226 2A                 1772 	.db #0x2A
   0227 2A                 1773 	.db #0x2A
   0228 2A                 1774 	.db #0x2A
   0229 2A                 1775 	.db #0x2A
   022A 2A                 1776 	.db #0x2A
   022B 2A                 1777 	.db #0x2A
   022C 2A                 1778 	.db #0x2A
   022D 2D                 1779 	.db #0x2D
   022E 2D                 1780 	.db #0x2D
   022F 2D                 1781 	.db #0x2D
   0230 2D                 1782 	.db #0x2D
   0231 2D                 1783 	.db #0x2D
   0232 2D                 1784 	.db #0x2D
   0233 2A                 1785 	.db #0x2A
   0234 2A                 1786 	.db #0x2A
   0235 2A                 1787 	.db #0x2A
   0236 2A                 1788 	.db #0x2A
   0237 2A                 1789 	.db #0x2A
   0238 2A                 1790 	.db #0x2A
   0239 2A                 1791 	.db #0x2A
   023A 2A                 1792 	.db #0x2A
   023B 2A                 1793 	.db #0x2A
   023C 2A                 1794 	.db #0x2A
   023D 2A                 1795 	.db #0x2A
   023E 2A                 1796 	.db #0x2A
   023F 2A                 1797 	.db #0x2A
   0240 2A                 1798 	.db #0x2A
   0241 2D                 1799 	.db #0x2D
   0242 2D                 1800 	.db #0x2D
   0243 2D                 1801 	.db #0x2D
   0244 2D                 1802 	.db #0x2D
   0245 2D                 1803 	.db #0x2D
   0246 2D                 1804 	.db #0x2D
   0247 2A                 1805 	.db #0x2A
   0248 2A                 1806 	.db #0x2A
   0249 2A                 1807 	.db #0x2A
   024A 2A                 1808 	.db #0x2A
   024B 2A                 1809 	.db #0x2A
   024C 2A                 1810 	.db #0x2A
   024D 2A                 1811 	.db #0x2A
   024E 2A                 1812 	.db #0x2A
   024F 2A                 1813 	.db #0x2A
   0250 2A                 1814 	.db #0x2A
   0251 2A                 1815 	.db #0x2A
   0252 2A                 1816 	.db #0x2A
   0253 2A                 1817 	.db #0x2A
   0254 2A                 1818 	.db #0x2A
   0255 2D                 1819 	.db #0x2D
   0256 2D                 1820 	.db #0x2D
   0257 2D                 1821 	.db #0x2D
   0258 2D                 1822 	.db #0x2D
   0259 2D                 1823 	.db #0x2D
   025A 2D                 1824 	.db #0x2D
   025B 2A                 1825 	.db #0x2A
   025C 2A                 1826 	.db #0x2A
   025D 2A                 1827 	.db #0x2A
   025E 2A                 1828 	.db #0x2A
   025F 2A                 1829 	.db #0x2A
   0260 2A                 1830 	.db #0x2A
   0261 2A                 1831 	.db #0x2A
   0262 2A                 1832 	.db #0x2A
   0263 2A                 1833 	.db #0x2A
   0264 2A                 1834 	.db #0x2A
   0265 2A                 1835 	.db #0x2A
   0266 2A                 1836 	.db #0x2A
   0267 2A                 1837 	.db #0x2A
   0268 2A                 1838 	.db #0x2A
   0269 2D                 1839 	.db #0x2D
   026A 2D                 1840 	.db #0x2D
   026B 2D                 1841 	.db #0x2D
   026C 2D                 1842 	.db #0x2D
   026D 2D                 1843 	.db #0x2D
   026E 2D                 1844 	.db #0x2D
   026F 2A                 1845 	.db #0x2A
   0270 2A                 1846 	.db #0x2A
   0271 2A                 1847 	.db #0x2A
   0272 2A                 1848 	.db #0x2A
   0273 2A                 1849 	.db #0x2A
   0274 2A                 1850 	.db #0x2A
   0275 2A                 1851 	.db #0x2A
   0276 2A                 1852 	.db #0x2A
   0277 2A                 1853 	.db #0x2A
   0278 2A                 1854 	.db #0x2A
   0279 2A                 1855 	.db #0x2A
   027A 2A                 1856 	.db #0x2A
   027B 2A                 1857 	.db #0x2A
   027C 2A                 1858 	.db #0x2A
   027D 2D                 1859 	.db #0x2D
   027E 2D                 1860 	.db #0x2D
   027F 2D                 1861 	.db #0x2D
   0280 2D                 1862 	.db #0x2D
   0281 2D                 1863 	.db #0x2D
   0282 2D                 1864 	.db #0x2D
   0283 2A                 1865 	.db #0x2A
   0284 2A                 1866 	.db #0x2A
   0285 2A                 1867 	.db #0x2A
   0286 2A                 1868 	.db #0x2A
   0287 2A                 1869 	.db #0x2A
   0288 2A                 1870 	.db #0x2A
   0289 2A                 1871 	.db #0x2A
   028A 2A                 1872 	.db #0x2A
   028B 2A                 1873 	.db #0x2A
   028C 2A                 1874 	.db #0x2A
   028D 2A                 1875 	.db #0x2A
   028E 2A                 1876 	.db #0x2A
   028F 2A                 1877 	.db #0x2A
   0290 2A                 1878 	.db #0x2A
   0291 2D                 1879 	.db #0x2D
   0292 2D                 1880 	.db #0x2D
   0293 2D                 1881 	.db #0x2D
   0294 2D                 1882 	.db #0x2D
   0295 2D                 1883 	.db #0x2D
   0296 2D                 1884 	.db #0x2D
   0297 2A                 1885 	.db #0x2A
   0298 2A                 1886 	.db #0x2A
   0299 2A                 1887 	.db #0x2A
   029A 2A                 1888 	.db #0x2A
   029B 2A                 1889 	.db #0x2A
   029C 2A                 1890 	.db #0x2A
   029D 2A                 1891 	.db #0x2A
   029E 2A                 1892 	.db #0x2A
   029F 2A                 1893 	.db #0x2A
   02A0 2A                 1894 	.db #0x2A
   02A1 2A                 1895 	.db #0x2A
   02A2 2A                 1896 	.db #0x2A
   02A3 2A                 1897 	.db #0x2A
   02A4 2A                 1898 	.db #0x2A
   02A5 2D                 1899 	.db #0x2D
   02A6 2D                 1900 	.db #0x2D
   02A7 2D                 1901 	.db #0x2D
   02A8 2D                 1902 	.db #0x2D
   02A9 2D                 1903 	.db #0x2D
   02AA 2D                 1904 	.db #0x2D
   02AB 2A                 1905 	.db #0x2A
   02AC 2A                 1906 	.db #0x2A
   02AD 2A                 1907 	.db #0x2A
   02AE 2A                 1908 	.db #0x2A
   02AF 2A                 1909 	.db #0x2A
   02B0 2A                 1910 	.db #0x2A
   02B1 2A                 1911 	.db #0x2A
   02B2 2A                 1912 	.db #0x2A
   02B3 2A                 1913 	.db #0x2A
   02B4 2A                 1914 	.db #0x2A
   02B5 2A                 1915 	.db #0x2A
   02B6 2A                 1916 	.db #0x2A
   02B7 2A                 1917 	.db #0x2A
   02B8 2A                 1918 	.db #0x2A
   02B9 2D                 1919 	.db #0x2D
   02BA 2D                 1920 	.db #0x2D
   02BB 2D                 1921 	.db #0x2D
   02BC 2D                 1922 	.db #0x2D
   02BD 2D                 1923 	.db #0x2D
   02BE 2D                 1924 	.db #0x2D
   02BF 2A                 1925 	.db #0x2A
   02C0 2A                 1926 	.db #0x2A
   02C1 2A                 1927 	.db #0x2A
   02C2 2A                 1928 	.db #0x2A
   02C3 2A                 1929 	.db #0x2A
   02C4 2A                 1930 	.db #0x2A
   02C5 2A                 1931 	.db #0x2A
   02C6 2A                 1932 	.db #0x2A
   02C7 2A                 1933 	.db #0x2A
   02C8 2A                 1934 	.db #0x2A
   02C9 2A                 1935 	.db #0x2A
   02CA 2A                 1936 	.db #0x2A
   02CB 2A                 1937 	.db #0x2A
   02CC 2B                 1938 	.db #0x2B
   02CD 2D                 1939 	.db #0x2D
   02CE 2D                 1940 	.db #0x2D
   02CF 2D                 1941 	.db #0x2D
   02D0 2D                 1942 	.db #0x2D
   02D1 2D                 1943 	.db #0x2D
   02D2 2D                 1944 	.db #0x2D
   02D3 2A                 1945 	.db #0x2A
   02D4 2A                 1946 	.db #0x2A
   02D5 2A                 1947 	.db #0x2A
   02D6 2A                 1948 	.db #0x2A
   02D7 2A                 1949 	.db #0x2A
   02D8 2A                 1950 	.db #0x2A
   02D9 2A                 1951 	.db #0x2A
   02DA 2A                 1952 	.db #0x2A
   02DB 2A                 1953 	.db #0x2A
   02DC 2A                 1954 	.db #0x2A
   02DD 2A                 1955 	.db #0x2A
   02DE 2A                 1956 	.db #0x2A
   02DF 2A                 1957 	.db #0x2A
   02E0 2A                 1958 	.db #0x2A
   02E1 2D                 1959 	.db #0x2D
   02E2 2D                 1960 	.db #0x2D
   02E3 2D                 1961 	.db #0x2D
   02E4 2D                 1962 	.db #0x2D
   02E5 2D                 1963 	.db #0x2D
   02E6 2D                 1964 	.db #0x2D
   02E7 2A                 1965 	.db #0x2A
   02E8 2A                 1966 	.db #0x2A
   02E9 2A                 1967 	.db #0x2A
   02EA 2A                 1968 	.db #0x2A
   02EB 2A                 1969 	.db #0x2A
   02EC 2A                 1970 	.db #0x2A
   02ED 2A                 1971 	.db #0x2A
   02EE 2A                 1972 	.db #0x2A
   02EF 2A                 1973 	.db #0x2A
   02F0 2A                 1974 	.db #0x2A
   02F1 2A                 1975 	.db #0x2A
   02F2 2A                 1976 	.db #0x2A
   02F3 2A                 1977 	.db #0x2A
   02F4 2A                 1978 	.db #0x2A
   02F5 2A                 1979 	.db #0x2A
   02F6 2A                 1980 	.db #0x2A
   02F7 2A                 1981 	.db #0x2A
   02F8 2A                 1982 	.db #0x2A
   02F9 2A                 1983 	.db #0x2A
   02FA 2A                 1984 	.db #0x2A
   02FB 2A                 1985 	.db #0x2A
   02FC 2A                 1986 	.db #0x2A
   02FD 2A                 1987 	.db #0x2A
   02FE 2A                 1988 	.db #0x2A
   02FF 2A                 1989 	.db #0x2A
   0300 2A                 1990 	.db #0x2A
   0301 2A                 1991 	.db #0x2A
   0302 2A                 1992 	.db #0x2A
   0303 2A                 1993 	.db #0x2A
   0304 2A                 1994 	.db #0x2A
   0305 2A                 1995 	.db #0x2A
   0306 2A                 1996 	.db #0x2A
   0307 2A                 1997 	.db #0x2A
   0308 2A                 1998 	.db #0x2A
   0309 2A                 1999 	.db #0x2A
   030A 2A                 2000 	.db #0x2A
   030B 2A                 2001 	.db #0x2A
   030C 2A                 2002 	.db #0x2A
   030D 2A                 2003 	.db #0x2A
   030E 2A                 2004 	.db #0x2A
   030F 2A                 2005 	.db #0x2A
   0310 2A                 2006 	.db #0x2A
   0311 2A                 2007 	.db #0x2A
   0312 2A                 2008 	.db #0x2A
   0313 2A                 2009 	.db #0x2A
   0314 2A                 2010 	.db #0x2A
   0315 2A                 2011 	.db #0x2A
   0316 2A                 2012 	.db #0x2A
   0317 2A                 2013 	.db #0x2A
   0318 2A                 2014 	.db #0x2A
   0319 2A                 2015 	.db #0x2A
   031A 2A                 2016 	.db #0x2A
   031B 2A                 2017 	.db #0x2A
   031C 2A                 2018 	.db #0x2A
   031D 2A                 2019 	.db #0x2A
   031E 2A                 2020 	.db #0x2A
   031F 2A                 2021 	.db #0x2A
   0320 2A                 2022 	.db #0x2A
   0321 2A                 2023 	.db #0x2A
   0322 2A                 2024 	.db #0x2A
   0323 2A                 2025 	.db #0x2A
   0324 2A                 2026 	.db #0x2A
   0325 2A                 2027 	.db #0x2A
   0326 2A                 2028 	.db #0x2A
   0327 2A                 2029 	.db #0x2A
   0328 2A                 2030 	.db #0x2A
   0329 2A                 2031 	.db #0x2A
   032A 2A                 2032 	.db #0x2A
   032B 2A                 2033 	.db #0x2A
   032C 2A                 2034 	.db #0x2A
   032D 2A                 2035 	.db #0x2A
   032E 2A                 2036 	.db #0x2A
   032F 2A                 2037 	.db #0x2A
   0330 2A                 2038 	.db #0x2A
   0331 2A                 2039 	.db #0x2A
   0332 2A                 2040 	.db #0x2A
   0333 2A                 2041 	.db #0x2A
   0334 2A                 2042 	.db #0x2A
   0335 2A                 2043 	.db #0x2A
   0336 2A                 2044 	.db #0x2A
   0337 2A                 2045 	.db #0x2A
   0338 2A                 2046 	.db #0x2A
   0339 2A                 2047 	.db #0x2A
   033A 2A                 2048 	.db #0x2A
   033B 2A                 2049 	.db #0x2A
   033C 2A                 2050 	.db #0x2A
   033D 2A                 2051 	.db #0x2A
   033E 2A                 2052 	.db #0x2A
   033F 2A                 2053 	.db #0x2A
   0340 2A                 2054 	.db #0x2A
   0341 2A                 2055 	.db #0x2A
   0342 2A                 2056 	.db #0x2A
   0343 2A                 2057 	.db #0x2A
   0344 2A                 2058 	.db #0x2A
   0345 2A                 2059 	.db #0x2A
   0346 2A                 2060 	.db #0x2A
   0347 2A                 2061 	.db #0x2A
   0348 2A                 2062 	.db #0x2A
   0349 2A                 2063 	.db #0x2A
   034A 2A                 2064 	.db #0x2A
   034B 2A                 2065 	.db #0x2A
   034C 2A                 2066 	.db #0x2A
   034D 2A                 2067 	.db #0x2A
   034E 2A                 2068 	.db #0x2A
   034F 2A                 2069 	.db #0x2A
   0350 2A                 2070 	.db #0x2A
   0351                    2071 _ground:
   0351 2C                 2072 	.db #0x2C
   0352 27                 2073 	.db #0x27
   0353 27                 2074 	.db #0x27
   0354 27                 2075 	.db #0x27
   0355 27                 2076 	.db #0x27
   0356 27                 2077 	.db #0x27
   0357 27                 2078 	.db #0x27
   0358 27                 2079 	.db #0x27
   0359 27                 2080 	.db #0x27
   035A 27                 2081 	.db #0x27
   035B 27                 2082 	.db #0x27
   035C 27                 2083 	.db #0x27
   035D 27                 2084 	.db #0x27
   035E 27                 2085 	.db #0x27
   035F 27                 2086 	.db #0x27
   0360 27                 2087 	.db #0x27
   0361 27                 2088 	.db #0x27
   0362 2C                 2089 	.db #0x2C
   0363 2A                 2090 	.db #0x2A
   0364 2A                 2091 	.db #0x2A
   0365 2C                 2092 	.db #0x2C
   0366 29                 2093 	.db #0x29
   0367 27                 2094 	.db #0x27
   0368 27                 2095 	.db #0x27
   0369 27                 2096 	.db #0x27
   036A 27                 2097 	.db #0x27
   036B 27                 2098 	.db #0x27
   036C 28                 2099 	.db #0x28
   036D 28                 2100 	.db #0x28
   036E 28                 2101 	.db #0x28
   036F 28                 2102 	.db #0x28
   0370 28                 2103 	.db #0x28
   0371 28                 2104 	.db #0x28
   0372 28                 2105 	.db #0x28
   0373 27                 2106 	.db #0x27
   0374 27                 2107 	.db #0x27
   0375 27                 2108 	.db #0x27
   0376 2C                 2109 	.db #0x2C
   0377 2A                 2110 	.db #0x2A
   0378 2A                 2111 	.db #0x2A
   0379 2C                 2112 	.db #0x2C
   037A 27                 2113 	.db #0x27
   037B 27                 2114 	.db #0x27
   037C 28                 2115 	.db #0x28
   037D 28                 2116 	.db #0x28
   037E 28                 2117 	.db #0x28
   037F 28                 2118 	.db #0x28
   0380 28                 2119 	.db #0x28
   0381 27                 2120 	.db #0x27
   0382 27                 2121 	.db #0x27
   0383 28                 2122 	.db #0x28
   0384 27                 2123 	.db #0x27
   0385 27                 2124 	.db #0x27
   0386 27                 2125 	.db #0x27
   0387 28                 2126 	.db #0x28
   0388 27                 2127 	.db #0x27
   0389 27                 2128 	.db #0x27
   038A 2C                 2129 	.db #0x2C
   038B 2A                 2130 	.db #0x2A
   038C 2A                 2131 	.db #0x2A
   038D 2C                 2132 	.db #0x2C
   038E 28                 2133 	.db #0x28
   038F 28                 2134 	.db #0x28
   0390 27                 2135 	.db #0x27
   0391 27                 2136 	.db #0x27
   0392 28                 2137 	.db #0x28
   0393 28                 2138 	.db #0x28
   0394 28                 2139 	.db #0x28
   0395 27                 2140 	.db #0x27
   0396 27                 2141 	.db #0x27
   0397 27                 2142 	.db #0x27
   0398 27                 2143 	.db #0x27
   0399 28                 2144 	.db #0x28
   039A 27                 2145 	.db #0x27
   039B 27                 2146 	.db #0x27
   039C 27                 2147 	.db #0x27
   039D 27                 2148 	.db #0x27
   039E 2C                 2149 	.db #0x2C
   039F 2A                 2150 	.db #0x2A
   03A0 2A                 2151 	.db #0x2A
   03A1 2C                 2152 	.db #0x2C
   03A2 27                 2153 	.db #0x27
   03A3 27                 2154 	.db #0x27
   03A4 27                 2155 	.db #0x27
   03A5 27                 2156 	.db #0x27
   03A6 27                 2157 	.db #0x27
   03A7 28                 2158 	.db #0x28
   03A8 28                 2159 	.db #0x28
   03A9 27                 2160 	.db #0x27
   03AA 28                 2161 	.db #0x28
   03AB 28                 2162 	.db #0x28
   03AC 29                 2163 	.db #0x29
   03AD 27                 2164 	.db #0x27
   03AE 27                 2165 	.db #0x27
   03AF 27                 2166 	.db #0x27
   03B0 27                 2167 	.db #0x27
   03B1 27                 2168 	.db #0x27
   03B2 2C                 2169 	.db #0x2C
   03B3 2A                 2170 	.db #0x2A
   03B4 2A                 2171 	.db #0x2A
   03B5 2C                 2172 	.db #0x2C
   03B6 27                 2173 	.db #0x27
   03B7 27                 2174 	.db #0x27
   03B8 28                 2175 	.db #0x28
   03B9 28                 2176 	.db #0x28
   03BA 28                 2177 	.db #0x28
   03BB 28                 2178 	.db #0x28
   03BC 27                 2179 	.db #0x27
   03BD 27                 2180 	.db #0x27
   03BE 27                 2181 	.db #0x27
   03BF 27                 2182 	.db #0x27
   03C0 27                 2183 	.db #0x27
   03C1 28                 2184 	.db #0x28
   03C2 28                 2185 	.db #0x28
   03C3 28                 2186 	.db #0x28
   03C4 27                 2187 	.db #0x27
   03C5 28                 2188 	.db #0x28
   03C6 2B                 2189 	.db #0x2B
   03C7 2C                 2190 	.db #0x2C
   03C8 2C                 2191 	.db #0x2C
   03C9 2C                 2192 	.db #0x2C
   03CA 27                 2193 	.db #0x27
   03CB 27                 2194 	.db #0x27
   03CC 28                 2195 	.db #0x28
   03CD 28                 2196 	.db #0x28
   03CE 27                 2197 	.db #0x27
   03CF 27                 2198 	.db #0x27
   03D0 27                 2199 	.db #0x27
   03D1 27                 2200 	.db #0x27
   03D2 27                 2201 	.db #0x27
   03D3 27                 2202 	.db #0x27
   03D4 28                 2203 	.db #0x28
   03D5 28                 2204 	.db #0x28
   03D6 28                 2205 	.db #0x28
   03D7 28                 2206 	.db #0x28
   03D8 27                 2207 	.db #0x27
   03D9 29                 2208 	.db #0x29
   03DA 29                 2209 	.db #0x29
   03DB 28                 2210 	.db #0x28
   03DC 2C                 2211 	.db #0x2C
   03DD 2C                 2212 	.db #0x2C
   03DE 28                 2213 	.db #0x28
   03DF 27                 2214 	.db #0x27
   03E0 27                 2215 	.db #0x27
   03E1 2C                 2216 	.db #0x2C
   03E2 2C                 2217 	.db #0x2C
   03E3 2C                 2218 	.db #0x2C
   03E4 27                 2219 	.db #0x27
   03E5 27                 2220 	.db #0x27
   03E6 28                 2221 	.db #0x28
   03E7 27                 2222 	.db #0x27
   03E8 27                 2223 	.db #0x27
   03E9 27                 2224 	.db #0x27
   03EA 27                 2225 	.db #0x27
   03EB 27                 2226 	.db #0x27
   03EC 27                 2227 	.db #0x27
   03ED 27                 2228 	.db #0x27
   03EE 27                 2229 	.db #0x27
   03EF 27                 2230 	.db #0x27
   03F0 2C                 2231 	.db #0x2C
   03F1 2C                 2232 	.db #0x2C
   03F2 28                 2233 	.db #0x28
   03F3 28                 2234 	.db #0x28
   03F4 28                 2235 	.db #0x28
   03F5 2C                 2236 	.db #0x2C
   03F6 2A                 2237 	.db #0x2A
   03F7 2C                 2238 	.db #0x2C
   03F8 28                 2239 	.db #0x28
   03F9 28                 2240 	.db #0x28
   03FA 27                 2241 	.db #0x27
   03FB 27                 2242 	.db #0x27
   03FC 27                 2243 	.db #0x27
   03FD 27                 2244 	.db #0x27
   03FE 27                 2245 	.db #0x27
   03FF 27                 2246 	.db #0x27
   0400 27                 2247 	.db #0x27
   0401 29                 2248 	.db #0x29
   0402 28                 2249 	.db #0x28
   0403 27                 2250 	.db #0x27
   0404 2C                 2251 	.db #0x2C
   0405 2C                 2252 	.db #0x2C
   0406 27                 2253 	.db #0x27
   0407 28                 2254 	.db #0x28
   0408 28                 2255 	.db #0x28
   0409 2C                 2256 	.db #0x2C
   040A 2C                 2257 	.db #0x2C
   040B 2C                 2258 	.db #0x2C
   040C 28                 2259 	.db #0x28
   040D 28                 2260 	.db #0x28
   040E 27                 2261 	.db #0x27
   040F 27                 2262 	.db #0x27
   0410 27                 2263 	.db #0x27
   0411 27                 2264 	.db #0x27
   0412 27                 2265 	.db #0x27
   0413 27                 2266 	.db #0x27
   0414 28                 2267 	.db #0x28
   0415 29                 2268 	.db #0x29
   0416 28                 2269 	.db #0x28
   0417 28                 2270 	.db #0x28
   0418 2C                 2271 	.db #0x2C
   0419 2C                 2272 	.db #0x2C
   041A 27                 2273 	.db #0x27
   041B 27                 2274 	.db #0x27
   041C 27                 2275 	.db #0x27
   041D 27                 2276 	.db #0x27
   041E 27                 2277 	.db #0x27
   041F 28                 2278 	.db #0x28
   0420 28                 2279 	.db #0x28
   0421 27                 2280 	.db #0x27
   0422 27                 2281 	.db #0x27
   0423 27                 2282 	.db #0x27
   0424 28                 2283 	.db #0x28
   0425 27                 2284 	.db #0x27
   0426 28                 2285 	.db #0x28
   0427 28                 2286 	.db #0x28
   0428 28                 2287 	.db #0x28
   0429 28                 2288 	.db #0x28
   042A 28                 2289 	.db #0x28
   042B 27                 2290 	.db #0x27
   042C 2C                 2291 	.db #0x2C
   042D 2C                 2292 	.db #0x2C
   042E 27                 2293 	.db #0x27
   042F 28                 2294 	.db #0x28
   0430 27                 2295 	.db #0x27
   0431 27                 2296 	.db #0x27
   0432 27                 2297 	.db #0x27
   0433 27                 2298 	.db #0x27
   0434 27                 2299 	.db #0x27
   0435 28                 2300 	.db #0x28
   0436 28                 2301 	.db #0x28
   0437 29                 2302 	.db #0x29
   0438 27                 2303 	.db #0x27
   0439 28                 2304 	.db #0x28
   043A 28                 2305 	.db #0x28
   043B 28                 2306 	.db #0x28
   043C 28                 2307 	.db #0x28
   043D 28                 2308 	.db #0x28
   043E 28                 2309 	.db #0x28
   043F 27                 2310 	.db #0x27
   0440 2C                 2311 	.db #0x2C
   0441 2C                 2312 	.db #0x2C
   0442 27                 2313 	.db #0x27
   0443 28                 2314 	.db #0x28
   0444 27                 2315 	.db #0x27
   0445 27                 2316 	.db #0x27
   0446 27                 2317 	.db #0x27
   0447 27                 2318 	.db #0x27
   0448 27                 2319 	.db #0x27
   0449 27                 2320 	.db #0x27
   044A 27                 2321 	.db #0x27
   044B 27                 2322 	.db #0x27
   044C 27                 2323 	.db #0x27
   044D 27                 2324 	.db #0x27
   044E 27                 2325 	.db #0x27
   044F 27                 2326 	.db #0x27
   0450 28                 2327 	.db #0x28
   0451 27                 2328 	.db #0x27
   0452 27                 2329 	.db #0x27
   0453 27                 2330 	.db #0x27
   0454 2C                 2331 	.db #0x2C
   0455 2C                 2332 	.db #0x2C
   0456 27                 2333 	.db #0x27
   0457 27                 2334 	.db #0x27
   0458 27                 2335 	.db #0x27
   0459 27                 2336 	.db #0x27
   045A 28                 2337 	.db #0x28
   045B 27                 2338 	.db #0x27
   045C 27                 2339 	.db #0x27
   045D 27                 2340 	.db #0x27
   045E 27                 2341 	.db #0x27
   045F 27                 2342 	.db #0x27
   0460 27                 2343 	.db #0x27
   0461 29                 2344 	.db #0x29
   0462 27                 2345 	.db #0x27
   0463 27                 2346 	.db #0x27
   0464 29                 2347 	.db #0x29
   0465 27                 2348 	.db #0x27
   0466 27                 2349 	.db #0x27
   0467 28                 2350 	.db #0x28
   0468 2C                 2351 	.db #0x2C
   0469 2C                 2352 	.db #0x2C
   046A 27                 2353 	.db #0x27
   046B 27                 2354 	.db #0x27
   046C 27                 2355 	.db #0x27
   046D 28                 2356 	.db #0x28
   046E 27                 2357 	.db #0x27
   046F 27                 2358 	.db #0x27
   0470 28                 2359 	.db #0x28
   0471 27                 2360 	.db #0x27
   0472 27                 2361 	.db #0x27
   0473 28                 2362 	.db #0x28
   0474 27                 2363 	.db #0x27
   0475 28                 2364 	.db #0x28
   0476 27                 2365 	.db #0x27
   0477 27                 2366 	.db #0x27
   0478 27                 2367 	.db #0x27
   0479 27                 2368 	.db #0x27
   047A 27                 2369 	.db #0x27
   047B 27                 2370 	.db #0x27
   047C 2C                 2371 	.db #0x2C
   047D 2C                 2372 	.db #0x2C
   047E 2C                 2373 	.db #0x2C
   047F 2C                 2374 	.db #0x2C
   0480 2B                 2375 	.db #0x2B
   0481 2C                 2376 	.db #0x2C
   0482 2C                 2377 	.db #0x2C
   0483 2C                 2378 	.db #0x2C
   0484 2C                 2379 	.db #0x2C
   0485 27                 2380 	.db #0x27
   0486 28                 2381 	.db #0x28
   0487 28                 2382 	.db #0x28
   0488 27                 2383 	.db #0x27
   0489 27                 2384 	.db #0x27
   048A 28                 2385 	.db #0x28
   048B 27                 2386 	.db #0x27
   048C 27                 2387 	.db #0x27
   048D 27                 2388 	.db #0x27
   048E 27                 2389 	.db #0x27
   048F 27                 2390 	.db #0x27
   0490 2C                 2391 	.db #0x2C
   0491 2A                 2392 	.db #0x2A
   0492 2A                 2393 	.db #0x2A
   0493 2A                 2394 	.db #0x2A
   0494 2A                 2395 	.db #0x2A
   0495 2A                 2396 	.db #0x2A
   0496 2A                 2397 	.db #0x2A
   0497 2A                 2398 	.db #0x2A
   0498 2C                 2399 	.db #0x2C
   0499 27                 2400 	.db #0x27
   049A 27                 2401 	.db #0x27
   049B 28                 2402 	.db #0x28
   049C 27                 2403 	.db #0x27
   049D 27                 2404 	.db #0x27
   049E 28                 2405 	.db #0x28
   049F 28                 2406 	.db #0x28
   04A0 27                 2407 	.db #0x27
   04A1 27                 2408 	.db #0x27
   04A2 27                 2409 	.db #0x27
   04A3 27                 2410 	.db #0x27
   04A4 2C                 2411 	.db #0x2C
   04A5 2A                 2412 	.db #0x2A
   04A6 2A                 2413 	.db #0x2A
   04A7 2A                 2414 	.db #0x2A
   04A8 2A                 2415 	.db #0x2A
   04A9 2A                 2416 	.db #0x2A
   04AA 2A                 2417 	.db #0x2A
   04AB 2A                 2418 	.db #0x2A
   04AC 2C                 2419 	.db #0x2C
   04AD 2C                 2420 	.db #0x2C
   04AE 2C                 2421 	.db #0x2C
   04AF 2C                 2422 	.db #0x2C
   04B0 2C                 2423 	.db #0x2C
   04B1 2C                 2424 	.db #0x2C
   04B2 2C                 2425 	.db #0x2C
   04B3 2C                 2426 	.db #0x2C
   04B4 2C                 2427 	.db #0x2C
   04B5 2C                 2428 	.db #0x2C
   04B6 2C                 2429 	.db #0x2C
   04B7 2C                 2430 	.db #0x2C
   04B8 2C                 2431 	.db #0x2C
   04B9                    2432 _ground2:
   04B9 2C                 2433 	.db #0x2C
   04BA 2C                 2434 	.db #0x2C
   04BB 2C                 2435 	.db #0x2C
   04BC 2C                 2436 	.db #0x2C
   04BD 2C                 2437 	.db #0x2C
   04BE 2C                 2438 	.db #0x2C
   04BF 2C                 2439 	.db #0x2C
   04C0 2C                 2440 	.db #0x2C
   04C1 2C                 2441 	.db #0x2C
   04C2 2C                 2442 	.db #0x2C
   04C3 2C                 2443 	.db #0x2C
   04C4 2C                 2444 	.db #0x2C
   04C5 2C                 2445 	.db #0x2C
   04C6 2C                 2446 	.db #0x2C
   04C7 2C                 2447 	.db #0x2C
   04C8 2C                 2448 	.db #0x2C
   04C9 2C                 2449 	.db #0x2C
   04CA 2C                 2450 	.db #0x2C
   04CB 2C                 2451 	.db #0x2C
   04CC 2C                 2452 	.db #0x2C
   04CD 2C                 2453 	.db #0x2C
   04CE 29                 2454 	.db #0x29
   04CF 29                 2455 	.db #0x29
   04D0 29                 2456 	.db #0x29
   04D1 29                 2457 	.db #0x29
   04D2 29                 2458 	.db #0x29
   04D3 29                 2459 	.db #0x29
   04D4 29                 2460 	.db #0x29
   04D5 29                 2461 	.db #0x29
   04D6 29                 2462 	.db #0x29
   04D7 29                 2463 	.db #0x29
   04D8 29                 2464 	.db #0x29
   04D9 29                 2465 	.db #0x29
   04DA 28                 2466 	.db #0x28
   04DB 28                 2467 	.db #0x28
   04DC 29                 2468 	.db #0x29
   04DD 29                 2469 	.db #0x29
   04DE 29                 2470 	.db #0x29
   04DF 29                 2471 	.db #0x29
   04E0 29                 2472 	.db #0x29
   04E1 2C                 2473 	.db #0x2C
   04E2 28                 2474 	.db #0x28
   04E3 29                 2475 	.db #0x29
   04E4 28                 2476 	.db #0x28
   04E5 28                 2477 	.db #0x28
   04E6 28                 2478 	.db #0x28
   04E7 29                 2479 	.db #0x29
   04E8 29                 2480 	.db #0x29
   04E9 28                 2481 	.db #0x28
   04EA 29                 2482 	.db #0x29
   04EB 29                 2483 	.db #0x29
   04EC 29                 2484 	.db #0x29
   04ED 28                 2485 	.db #0x28
   04EE 29                 2486 	.db #0x29
   04EF 29                 2487 	.db #0x29
   04F0 29                 2488 	.db #0x29
   04F1 29                 2489 	.db #0x29
   04F2 29                 2490 	.db #0x29
   04F3 29                 2491 	.db #0x29
   04F4 29                 2492 	.db #0x29
   04F5 2C                 2493 	.db #0x2C
   04F6 29                 2494 	.db #0x29
   04F7 29                 2495 	.db #0x29
   04F8 2C                 2496 	.db #0x2C
   04F9 2C                 2497 	.db #0x2C
   04FA 2C                 2498 	.db #0x2C
   04FB 2C                 2499 	.db #0x2C
   04FC 29                 2500 	.db #0x29
   04FD 29                 2501 	.db #0x29
   04FE 29                 2502 	.db #0x29
   04FF 27                 2503 	.db #0x27
   0500 29                 2504 	.db #0x29
   0501 29                 2505 	.db #0x29
   0502 29                 2506 	.db #0x29
   0503 29                 2507 	.db #0x29
   0504 29                 2508 	.db #0x29
   0505 28                 2509 	.db #0x28
   0506 29                 2510 	.db #0x29
   0507 29                 2511 	.db #0x29
   0508 29                 2512 	.db #0x29
   0509 2C                 2513 	.db #0x2C
   050A 28                 2514 	.db #0x28
   050B 2C                 2515 	.db #0x2C
   050C 2C                 2516 	.db #0x2C
   050D 2A                 2517 	.db #0x2A
   050E 2A                 2518 	.db #0x2A
   050F 2C                 2519 	.db #0x2C
   0510 2C                 2520 	.db #0x2C
   0511 29                 2521 	.db #0x29
   0512 27                 2522 	.db #0x27
   0513 28                 2523 	.db #0x28
   0514 27                 2524 	.db #0x27
   0515 29                 2525 	.db #0x29
   0516 29                 2526 	.db #0x29
   0517 29                 2527 	.db #0x29
   0518 28                 2528 	.db #0x28
   0519 28                 2529 	.db #0x28
   051A 29                 2530 	.db #0x29
   051B 29                 2531 	.db #0x29
   051C 29                 2532 	.db #0x29
   051D 2C                 2533 	.db #0x2C
   051E 28                 2534 	.db #0x28
   051F 2C                 2535 	.db #0x2C
   0520 2A                 2536 	.db #0x2A
   0521 2A                 2537 	.db #0x2A
   0522 2A                 2538 	.db #0x2A
   0523 2A                 2539 	.db #0x2A
   0524 2C                 2540 	.db #0x2C
   0525 2C                 2541 	.db #0x2C
   0526 28                 2542 	.db #0x28
   0527 28                 2543 	.db #0x28
   0528 27                 2544 	.db #0x27
   0529 28                 2545 	.db #0x28
   052A 29                 2546 	.db #0x29
   052B 29                 2547 	.db #0x29
   052C 28                 2548 	.db #0x28
   052D 29                 2549 	.db #0x29
   052E 29                 2550 	.db #0x29
   052F 29                 2551 	.db #0x29
   0530 29                 2552 	.db #0x29
   0531 2C                 2553 	.db #0x2C
   0532 29                 2554 	.db #0x29
   0533 2C                 2555 	.db #0x2C
   0534 2A                 2556 	.db #0x2A
   0535 2A                 2557 	.db #0x2A
   0536 2A                 2558 	.db #0x2A
   0537 2A                 2559 	.db #0x2A
   0538 2C                 2560 	.db #0x2C
   0539 2C                 2561 	.db #0x2C
   053A 29                 2562 	.db #0x29
   053B 27                 2563 	.db #0x27
   053C 27                 2564 	.db #0x27
   053D 29                 2565 	.db #0x29
   053E 29                 2566 	.db #0x29
   053F 28                 2567 	.db #0x28
   0540 28                 2568 	.db #0x28
   0541 29                 2569 	.db #0x29
   0542 29                 2570 	.db #0x29
   0543 29                 2571 	.db #0x29
   0544 29                 2572 	.db #0x29
   0545 2C                 2573 	.db #0x2C
   0546 29                 2574 	.db #0x29
   0547 2C                 2575 	.db #0x2C
   0548 2A                 2576 	.db #0x2A
   0549 2A                 2577 	.db #0x2A
   054A 2A                 2578 	.db #0x2A
   054B 2A                 2579 	.db #0x2A
   054C 2C                 2580 	.db #0x2C
   054D 29                 2581 	.db #0x29
   054E 27                 2582 	.db #0x27
   054F 27                 2583 	.db #0x27
   0550 28                 2584 	.db #0x28
   0551 29                 2585 	.db #0x29
   0552 29                 2586 	.db #0x29
   0553 27                 2587 	.db #0x27
   0554 28                 2588 	.db #0x28
   0555 27                 2589 	.db #0x27
   0556 29                 2590 	.db #0x29
   0557 29                 2591 	.db #0x29
   0558 29                 2592 	.db #0x29
   0559 2C                 2593 	.db #0x2C
   055A 28                 2594 	.db #0x28
   055B 2C                 2595 	.db #0x2C
   055C 2C                 2596 	.db #0x2C
   055D 2A                 2597 	.db #0x2A
   055E 2A                 2598 	.db #0x2A
   055F 2A                 2599 	.db #0x2A
   0560 2C                 2600 	.db #0x2C
   0561 27                 2601 	.db #0x27
   0562 27                 2602 	.db #0x27
   0563 28                 2603 	.db #0x28
   0564 28                 2604 	.db #0x28
   0565 29                 2605 	.db #0x29
   0566 29                 2606 	.db #0x29
   0567 28                 2607 	.db #0x28
   0568 28                 2608 	.db #0x28
   0569 27                 2609 	.db #0x27
   056A 29                 2610 	.db #0x29
   056B 29                 2611 	.db #0x29
   056C 29                 2612 	.db #0x29
   056D 2C                 2613 	.db #0x2C
   056E 28                 2614 	.db #0x28
   056F 28                 2615 	.db #0x28
   0570 2C                 2616 	.db #0x2C
   0571 2C                 2617 	.db #0x2C
   0572 2C                 2618 	.db #0x2C
   0573 2C                 2619 	.db #0x2C
   0574 2C                 2620 	.db #0x2C
   0575 27                 2621 	.db #0x27
   0576 29                 2622 	.db #0x29
   0577 29                 2623 	.db #0x29
   0578 29                 2624 	.db #0x29
   0579 29                 2625 	.db #0x29
   057A 29                 2626 	.db #0x29
   057B 28                 2627 	.db #0x28
   057C 28                 2628 	.db #0x28
   057D 29                 2629 	.db #0x29
   057E 27                 2630 	.db #0x27
   057F 27                 2631 	.db #0x27
   0580 29                 2632 	.db #0x29
   0581 2C                 2633 	.db #0x2C
   0582 27                 2634 	.db #0x27
   0583 28                 2635 	.db #0x28
   0584 29                 2636 	.db #0x29
   0585 27                 2637 	.db #0x27
   0586 27                 2638 	.db #0x27
   0587 27                 2639 	.db #0x27
   0588 28                 2640 	.db #0x28
   0589 29                 2641 	.db #0x29
   058A 29                 2642 	.db #0x29
   058B 29                 2643 	.db #0x29
   058C 29                 2644 	.db #0x29
   058D 29                 2645 	.db #0x29
   058E 29                 2646 	.db #0x29
   058F 29                 2647 	.db #0x29
   0590 28                 2648 	.db #0x28
   0591 29                 2649 	.db #0x29
   0592 28                 2650 	.db #0x28
   0593 29                 2651 	.db #0x29
   0594 28                 2652 	.db #0x28
   0595 2C                 2653 	.db #0x2C
   0596 29                 2654 	.db #0x29
   0597 28                 2655 	.db #0x28
   0598 27                 2656 	.db #0x27
   0599 27                 2657 	.db #0x27
   059A 29                 2658 	.db #0x29
   059B 27                 2659 	.db #0x27
   059C 27                 2660 	.db #0x27
   059D 28                 2661 	.db #0x28
   059E 28                 2662 	.db #0x28
   059F 29                 2663 	.db #0x29
   05A0 29                 2664 	.db #0x29
   05A1 27                 2665 	.db #0x27
   05A2 28                 2666 	.db #0x28
   05A3 29                 2667 	.db #0x29
   05A4 28                 2668 	.db #0x28
   05A5 28                 2669 	.db #0x28
   05A6 29                 2670 	.db #0x29
   05A7 29                 2671 	.db #0x29
   05A8 28                 2672 	.db #0x28
   05A9 2C                 2673 	.db #0x2C
   05AA 28                 2674 	.db #0x28
   05AB 29                 2675 	.db #0x29
   05AC 29                 2676 	.db #0x29
   05AD 27                 2677 	.db #0x27
   05AE 27                 2678 	.db #0x27
   05AF 29                 2679 	.db #0x29
   05B0 29                 2680 	.db #0x29
   05B1 29                 2681 	.db #0x29
   05B2 28                 2682 	.db #0x28
   05B3 28                 2683 	.db #0x28
   05B4 28                 2684 	.db #0x28
   05B5 28                 2685 	.db #0x28
   05B6 29                 2686 	.db #0x29
   05B7 29                 2687 	.db #0x29
   05B8 29                 2688 	.db #0x29
   05B9 27                 2689 	.db #0x27
   05BA 29                 2690 	.db #0x29
   05BB 2C                 2691 	.db #0x2C
   05BC 2C                 2692 	.db #0x2C
   05BD 2C                 2693 	.db #0x2C
   05BE 28                 2694 	.db #0x28
   05BF 29                 2695 	.db #0x29
   05C0 27                 2696 	.db #0x27
   05C1 27                 2697 	.db #0x27
   05C2 29                 2698 	.db #0x29
   05C3 29                 2699 	.db #0x29
   05C4 29                 2700 	.db #0x29
   05C5 29                 2701 	.db #0x29
   05C6 29                 2702 	.db #0x29
   05C7 29                 2703 	.db #0x29
   05C8 29                 2704 	.db #0x29
   05C9 28                 2705 	.db #0x28
   05CA 27                 2706 	.db #0x27
   05CB 27                 2707 	.db #0x27
   05CC 29                 2708 	.db #0x29
   05CD 29                 2709 	.db #0x29
   05CE 2C                 2710 	.db #0x2C
   05CF 2A                 2711 	.db #0x2A
   05D0 2A                 2712 	.db #0x2A
   05D1 2C                 2713 	.db #0x2C
   05D2 29                 2714 	.db #0x29
   05D3 28                 2715 	.db #0x28
   05D4 27                 2716 	.db #0x27
   05D5 29                 2717 	.db #0x29
   05D6 29                 2718 	.db #0x29
   05D7 29                 2719 	.db #0x29
   05D8 29                 2720 	.db #0x29
   05D9 29                 2721 	.db #0x29
   05DA 29                 2722 	.db #0x29
   05DB 28                 2723 	.db #0x28
   05DC 28                 2724 	.db #0x28
   05DD 29                 2725 	.db #0x29
   05DE 29                 2726 	.db #0x29
   05DF 28                 2727 	.db #0x28
   05E0 29                 2728 	.db #0x29
   05E1 29                 2729 	.db #0x29
   05E2 2C                 2730 	.db #0x2C
   05E3 2A                 2731 	.db #0x2A
   05E4 2A                 2732 	.db #0x2A
   05E5 2C                 2733 	.db #0x2C
   05E6 29                 2734 	.db #0x29
   05E7 28                 2735 	.db #0x28
   05E8 29                 2736 	.db #0x29
   05E9 27                 2737 	.db #0x27
   05EA 29                 2738 	.db #0x29
   05EB 29                 2739 	.db #0x29
   05EC 29                 2740 	.db #0x29
   05ED 29                 2741 	.db #0x29
   05EE 29                 2742 	.db #0x29
   05EF 29                 2743 	.db #0x29
   05F0 29                 2744 	.db #0x29
   05F1 29                 2745 	.db #0x29
   05F2 27                 2746 	.db #0x27
   05F3 29                 2747 	.db #0x29
   05F4 29                 2748 	.db #0x29
   05F5 29                 2749 	.db #0x29
   05F6 2C                 2750 	.db #0x2C
   05F7 2A                 2751 	.db #0x2A
   05F8 2A                 2752 	.db #0x2A
   05F9 2C                 2753 	.db #0x2C
   05FA 29                 2754 	.db #0x29
   05FB 28                 2755 	.db #0x28
   05FC 29                 2756 	.db #0x29
   05FD 29                 2757 	.db #0x29
   05FE 29                 2758 	.db #0x29
   05FF 29                 2759 	.db #0x29
   0600 28                 2760 	.db #0x28
   0601 28                 2761 	.db #0x28
   0602 28                 2762 	.db #0x28
   0603 29                 2763 	.db #0x29
   0604 29                 2764 	.db #0x29
   0605 29                 2765 	.db #0x29
   0606 27                 2766 	.db #0x27
   0607 27                 2767 	.db #0x27
   0608 27                 2768 	.db #0x27
   0609 27                 2769 	.db #0x27
   060A 2C                 2770 	.db #0x2C
   060B 2A                 2771 	.db #0x2A
   060C 2A                 2772 	.db #0x2A
   060D 2C                 2773 	.db #0x2C
   060E 29                 2774 	.db #0x29
   060F 28                 2775 	.db #0x28
   0610 29                 2776 	.db #0x29
   0611 29                 2777 	.db #0x29
   0612 29                 2778 	.db #0x29
   0613 28                 2779 	.db #0x28
   0614 28                 2780 	.db #0x28
   0615 28                 2781 	.db #0x28
   0616 28                 2782 	.db #0x28
   0617 28                 2783 	.db #0x28
   0618 28                 2784 	.db #0x28
   0619 28                 2785 	.db #0x28
   061A 28                 2786 	.db #0x28
   061B 29                 2787 	.db #0x29
   061C 29                 2788 	.db #0x29
   061D 29                 2789 	.db #0x29
   061E 2C                 2790 	.db #0x2C
   061F 2A                 2791 	.db #0x2A
   0620 2A                 2792 	.db #0x2A
   0621                    2793 _ground3:
   0621 2C                 2794 	.db #0x2C
   0622 2C                 2795 	.db #0x2C
   0623 2C                 2796 	.db #0x2C
   0624 2C                 2797 	.db #0x2C
   0625 2C                 2798 	.db #0x2C
   0626 2C                 2799 	.db #0x2C
   0627 2C                 2800 	.db #0x2C
   0628 2C                 2801 	.db #0x2C
   0629 2C                 2802 	.db #0x2C
   062A 2C                 2803 	.db #0x2C
   062B 2C                 2804 	.db #0x2C
   062C 2C                 2805 	.db #0x2C
   062D 2C                 2806 	.db #0x2C
   062E 2C                 2807 	.db #0x2C
   062F 2C                 2808 	.db #0x2C
   0630 2C                 2809 	.db #0x2C
   0631 2C                 2810 	.db #0x2C
   0632 2C                 2811 	.db #0x2C
   0633 2C                 2812 	.db #0x2C
   0634 2C                 2813 	.db #0x2C
   0635 27                 2814 	.db #0x27
   0636 27                 2815 	.db #0x27
   0637 27                 2816 	.db #0x27
   0638 27                 2817 	.db #0x27
   0639 27                 2818 	.db #0x27
   063A 27                 2819 	.db #0x27
   063B 27                 2820 	.db #0x27
   063C 28                 2821 	.db #0x28
   063D 28                 2822 	.db #0x28
   063E 27                 2823 	.db #0x27
   063F 27                 2824 	.db #0x27
   0640 27                 2825 	.db #0x27
   0641 27                 2826 	.db #0x27
   0642 27                 2827 	.db #0x27
   0643 27                 2828 	.db #0x27
   0644 27                 2829 	.db #0x27
   0645 27                 2830 	.db #0x27
   0646 27                 2831 	.db #0x27
   0647 27                 2832 	.db #0x27
   0648 2C                 2833 	.db #0x2C
   0649 27                 2834 	.db #0x27
   064A 27                 2835 	.db #0x27
   064B 27                 2836 	.db #0x27
   064C 27                 2837 	.db #0x27
   064D 27                 2838 	.db #0x27
   064E 27                 2839 	.db #0x27
   064F 28                 2840 	.db #0x28
   0650 28                 2841 	.db #0x28
   0651 28                 2842 	.db #0x28
   0652 28                 2843 	.db #0x28
   0653 27                 2844 	.db #0x27
   0654 27                 2845 	.db #0x27
   0655 27                 2846 	.db #0x27
   0656 27                 2847 	.db #0x27
   0657 27                 2848 	.db #0x27
   0658 27                 2849 	.db #0x27
   0659 27                 2850 	.db #0x27
   065A 27                 2851 	.db #0x27
   065B 27                 2852 	.db #0x27
   065C 2C                 2853 	.db #0x2C
   065D 27                 2854 	.db #0x27
   065E 27                 2855 	.db #0x27
   065F 27                 2856 	.db #0x27
   0660 29                 2857 	.db #0x29
   0661 28                 2858 	.db #0x28
   0662 28                 2859 	.db #0x28
   0663 28                 2860 	.db #0x28
   0664 28                 2861 	.db #0x28
   0665 28                 2862 	.db #0x28
   0666 28                 2863 	.db #0x28
   0667 28                 2864 	.db #0x28
   0668 27                 2865 	.db #0x27
   0669 27                 2866 	.db #0x27
   066A 27                 2867 	.db #0x27
   066B 27                 2868 	.db #0x27
   066C 27                 2869 	.db #0x27
   066D 27                 2870 	.db #0x27
   066E 27                 2871 	.db #0x27
   066F 27                 2872 	.db #0x27
   0670 2C                 2873 	.db #0x2C
   0671 27                 2874 	.db #0x27
   0672 29                 2875 	.db #0x29
   0673 29                 2876 	.db #0x29
   0674 28                 2877 	.db #0x28
   0675 28                 2878 	.db #0x28
   0676 28                 2879 	.db #0x28
   0677 28                 2880 	.db #0x28
   0678 28                 2881 	.db #0x28
   0679 28                 2882 	.db #0x28
   067A 28                 2883 	.db #0x28
   067B 28                 2884 	.db #0x28
   067C 27                 2885 	.db #0x27
   067D 29                 2886 	.db #0x29
   067E 28                 2887 	.db #0x28
   067F 28                 2888 	.db #0x28
   0680 28                 2889 	.db #0x28
   0681 28                 2890 	.db #0x28
   0682 27                 2891 	.db #0x27
   0683 27                 2892 	.db #0x27
   0684 2C                 2893 	.db #0x2C
   0685 27                 2894 	.db #0x27
   0686 29                 2895 	.db #0x29
   0687 29                 2896 	.db #0x29
   0688 28                 2897 	.db #0x28
   0689 28                 2898 	.db #0x28
   068A 28                 2899 	.db #0x28
   068B 27                 2900 	.db #0x27
   068C 28                 2901 	.db #0x28
   068D 28                 2902 	.db #0x28
   068E 28                 2903 	.db #0x28
   068F 28                 2904 	.db #0x28
   0690 28                 2905 	.db #0x28
   0691 28                 2906 	.db #0x28
   0692 28                 2907 	.db #0x28
   0693 29                 2908 	.db #0x29
   0694 27                 2909 	.db #0x27
   0695 27                 2910 	.db #0x27
   0696 27                 2911 	.db #0x27
   0697 27                 2912 	.db #0x27
   0698 2C                 2913 	.db #0x2C
   0699 27                 2914 	.db #0x27
   069A 29                 2915 	.db #0x29
   069B 28                 2916 	.db #0x28
   069C 28                 2917 	.db #0x28
   069D 28                 2918 	.db #0x28
   069E 27                 2919 	.db #0x27
   069F 27                 2920 	.db #0x27
   06A0 27                 2921 	.db #0x27
   06A1 28                 2922 	.db #0x28
   06A2 28                 2923 	.db #0x28
   06A3 28                 2924 	.db #0x28
   06A4 28                 2925 	.db #0x28
   06A5 28                 2926 	.db #0x28
   06A6 29                 2927 	.db #0x29
   06A7 28                 2928 	.db #0x28
   06A8 27                 2929 	.db #0x27
   06A9 27                 2930 	.db #0x27
   06AA 27                 2931 	.db #0x27
   06AB 27                 2932 	.db #0x27
   06AC 2C                 2933 	.db #0x2C
   06AD 27                 2934 	.db #0x27
   06AE 29                 2935 	.db #0x29
   06AF 28                 2936 	.db #0x28
   06B0 27                 2937 	.db #0x27
   06B1 28                 2938 	.db #0x28
   06B2 29                 2939 	.db #0x29
   06B3 27                 2940 	.db #0x27
   06B4 27                 2941 	.db #0x27
   06B5 27                 2942 	.db #0x27
   06B6 28                 2943 	.db #0x28
   06B7 28                 2944 	.db #0x28
   06B8 28                 2945 	.db #0x28
   06B9 29                 2946 	.db #0x29
   06BA 28                 2947 	.db #0x28
   06BB 28                 2948 	.db #0x28
   06BC 28                 2949 	.db #0x28
   06BD 27                 2950 	.db #0x27
   06BE 27                 2951 	.db #0x27
   06BF 27                 2952 	.db #0x27
   06C0 2C                 2953 	.db #0x2C
   06C1 27                 2954 	.db #0x27
   06C2 28                 2955 	.db #0x28
   06C3 28                 2956 	.db #0x28
   06C4 27                 2957 	.db #0x27
   06C5 28                 2958 	.db #0x28
   06C6 28                 2959 	.db #0x28
   06C7 27                 2960 	.db #0x27
   06C8 28                 2961 	.db #0x28
   06C9 28                 2962 	.db #0x28
   06CA 28                 2963 	.db #0x28
   06CB 28                 2964 	.db #0x28
   06CC 28                 2965 	.db #0x28
   06CD 28                 2966 	.db #0x28
   06CE 28                 2967 	.db #0x28
   06CF 27                 2968 	.db #0x27
   06D0 28                 2969 	.db #0x28
   06D1 27                 2970 	.db #0x27
   06D2 27                 2971 	.db #0x27
   06D3 27                 2972 	.db #0x27
   06D4 2C                 2973 	.db #0x2C
   06D5 27                 2974 	.db #0x27
   06D6 28                 2975 	.db #0x28
   06D7 29                 2976 	.db #0x29
   06D8 27                 2977 	.db #0x27
   06D9 28                 2978 	.db #0x28
   06DA 28                 2979 	.db #0x28
   06DB 28                 2980 	.db #0x28
   06DC 28                 2981 	.db #0x28
   06DD 29                 2982 	.db #0x29
   06DE 28                 2983 	.db #0x28
   06DF 28                 2984 	.db #0x28
   06E0 28                 2985 	.db #0x28
   06E1 28                 2986 	.db #0x28
   06E2 27                 2987 	.db #0x27
   06E3 28                 2988 	.db #0x28
   06E4 28                 2989 	.db #0x28
   06E5 27                 2990 	.db #0x27
   06E6 27                 2991 	.db #0x27
   06E7 27                 2992 	.db #0x27
   06E8 2C                 2993 	.db #0x2C
   06E9 27                 2994 	.db #0x27
   06EA 28                 2995 	.db #0x28
   06EB 29                 2996 	.db #0x29
   06EC 29                 2997 	.db #0x29
   06ED 28                 2998 	.db #0x28
   06EE 28                 2999 	.db #0x28
   06EF 28                 3000 	.db #0x28
   06F0 28                 3001 	.db #0x28
   06F1 28                 3002 	.db #0x28
   06F2 28                 3003 	.db #0x28
   06F3 28                 3004 	.db #0x28
   06F4 28                 3005 	.db #0x28
   06F5 28                 3006 	.db #0x28
   06F6 27                 3007 	.db #0x27
   06F7 28                 3008 	.db #0x28
   06F8 28                 3009 	.db #0x28
   06F9 27                 3010 	.db #0x27
   06FA 27                 3011 	.db #0x27
   06FB 27                 3012 	.db #0x27
   06FC 2C                 3013 	.db #0x2C
   06FD 27                 3014 	.db #0x27
   06FE 28                 3015 	.db #0x28
   06FF 27                 3016 	.db #0x27
   0700 27                 3017 	.db #0x27
   0701 28                 3018 	.db #0x28
   0702 28                 3019 	.db #0x28
   0703 28                 3020 	.db #0x28
   0704 28                 3021 	.db #0x28
   0705 28                 3022 	.db #0x28
   0706 28                 3023 	.db #0x28
   0707 28                 3024 	.db #0x28
   0708 29                 3025 	.db #0x29
   0709 28                 3026 	.db #0x28
   070A 28                 3027 	.db #0x28
   070B 28                 3028 	.db #0x28
   070C 28                 3029 	.db #0x28
   070D 27                 3030 	.db #0x27
   070E 27                 3031 	.db #0x27
   070F 27                 3032 	.db #0x27
   0710 2C                 3033 	.db #0x2C
   0711 2C                 3034 	.db #0x2C
   0712 2C                 3035 	.db #0x2C
   0713 2C                 3036 	.db #0x2C
   0714 29                 3037 	.db #0x29
   0715 28                 3038 	.db #0x28
   0716 28                 3039 	.db #0x28
   0717 27                 3040 	.db #0x27
   0718 27                 3041 	.db #0x27
   0719 28                 3042 	.db #0x28
   071A 28                 3043 	.db #0x28
   071B 28                 3044 	.db #0x28
   071C 27                 3045 	.db #0x27
   071D 28                 3046 	.db #0x28
   071E 28                 3047 	.db #0x28
   071F 27                 3048 	.db #0x27
   0720 27                 3049 	.db #0x27
   0721 27                 3050 	.db #0x27
   0722 27                 3051 	.db #0x27
   0723 27                 3052 	.db #0x27
   0724 2C                 3053 	.db #0x2C
   0725 2A                 3054 	.db #0x2A
   0726 2A                 3055 	.db #0x2A
   0727 2A                 3056 	.db #0x2A
   0728 2C                 3057 	.db #0x2C
   0729 27                 3058 	.db #0x27
   072A 28                 3059 	.db #0x28
   072B 28                 3060 	.db #0x28
   072C 28                 3061 	.db #0x28
   072D 28                 3062 	.db #0x28
   072E 28                 3063 	.db #0x28
   072F 28                 3064 	.db #0x28
   0730 28                 3065 	.db #0x28
   0731 28                 3066 	.db #0x28
   0732 27                 3067 	.db #0x27
   0733 27                 3068 	.db #0x27
   0734 27                 3069 	.db #0x27
   0735 27                 3070 	.db #0x27
   0736 27                 3071 	.db #0x27
   0737 28                 3072 	.db #0x28
   0738 2C                 3073 	.db #0x2C
   0739 2A                 3074 	.db #0x2A
   073A 2A                 3075 	.db #0x2A
   073B 2A                 3076 	.db #0x2A
   073C 2C                 3077 	.db #0x2C
   073D 27                 3078 	.db #0x27
   073E 27                 3079 	.db #0x27
   073F 28                 3080 	.db #0x28
   0740 28                 3081 	.db #0x28
   0741 28                 3082 	.db #0x28
   0742 27                 3083 	.db #0x27
   0743 28                 3084 	.db #0x28
   0744 27                 3085 	.db #0x27
   0745 27                 3086 	.db #0x27
   0746 27                 3087 	.db #0x27
   0747 27                 3088 	.db #0x27
   0748 27                 3089 	.db #0x27
   0749 27                 3090 	.db #0x27
   074A 27                 3091 	.db #0x27
   074B 28                 3092 	.db #0x28
   074C 2C                 3093 	.db #0x2C
   074D 2A                 3094 	.db #0x2A
   074E 2A                 3095 	.db #0x2A
   074F 2A                 3096 	.db #0x2A
   0750 2A                 3097 	.db #0x2A
   0751 2C                 3098 	.db #0x2C
   0752 2C                 3099 	.db #0x2C
   0753 27                 3100 	.db #0x27
   0754 27                 3101 	.db #0x27
   0755 28                 3102 	.db #0x28
   0756 28                 3103 	.db #0x28
   0757 28                 3104 	.db #0x28
   0758 27                 3105 	.db #0x27
   0759 27                 3106 	.db #0x27
   075A 27                 3107 	.db #0x27
   075B 27                 3108 	.db #0x27
   075C 27                 3109 	.db #0x27
   075D 28                 3110 	.db #0x28
   075E 28                 3111 	.db #0x28
   075F 28                 3112 	.db #0x28
   0760 2C                 3113 	.db #0x2C
   0761 2A                 3114 	.db #0x2A
   0762 2A                 3115 	.db #0x2A
   0763 2A                 3116 	.db #0x2A
   0764 2A                 3117 	.db #0x2A
   0765 2A                 3118 	.db #0x2A
   0766 2A                 3119 	.db #0x2A
   0767 2C                 3120 	.db #0x2C
   0768 2C                 3121 	.db #0x2C
   0769 27                 3122 	.db #0x27
   076A 27                 3123 	.db #0x27
   076B 27                 3124 	.db #0x27
   076C 27                 3125 	.db #0x27
   076D 27                 3126 	.db #0x27
   076E 27                 3127 	.db #0x27
   076F 27                 3128 	.db #0x27
   0770 27                 3129 	.db #0x27
   0771 27                 3130 	.db #0x27
   0772 27                 3131 	.db #0x27
   0773 29                 3132 	.db #0x29
   0774 2C                 3133 	.db #0x2C
   0775 2A                 3134 	.db #0x2A
   0776 2A                 3135 	.db #0x2A
   0777 2A                 3136 	.db #0x2A
   0778 2A                 3137 	.db #0x2A
   0779 2A                 3138 	.db #0x2A
   077A 2A                 3139 	.db #0x2A
   077B 2A                 3140 	.db #0x2A
   077C 2C                 3141 	.db #0x2C
   077D 2C                 3142 	.db #0x2C
   077E 2C                 3143 	.db #0x2C
   077F 2C                 3144 	.db #0x2C
   0780 2C                 3145 	.db #0x2C
   0781 2C                 3146 	.db #0x2C
   0782 2C                 3147 	.db #0x2C
   0783 2C                 3148 	.db #0x2C
   0784 2C                 3149 	.db #0x2C
   0785 2C                 3150 	.db #0x2C
   0786 2C                 3151 	.db #0x2C
   0787 2C                 3152 	.db #0x2C
   0788 2C                 3153 	.db #0x2C
   0789                    3154 _bonhomme:
   0789 7F                 3155 	.db #0x7F
   078A 7F                 3156 	.db #0x7F
   078B 7F                 3157 	.db #0x7F
   078C 7F                 3158 	.db #0x7F
   078D 41                 3159 	.db #0x41
   078E 7F                 3160 	.db #0x7F
   078F 52                 3161 	.db #0x52
   0790 7E                 3162 	.db #0x7E
   0791 60                 3163 	.db #0x60
   0792 7E                 3164 	.db #0x7E
   0793 9E                 3165 	.db #0x9E
   0794 FF                 3166 	.db #0xFF
   0795 9E                 3167 	.db #0x9E
   0796 FF                 3168 	.db #0xFF
   0797 42                 3169 	.db #0x42
   0798 42                 3170 	.db #0x42
   0799 7F                 3171 	.db #0x7F
   079A 7F                 3172 	.db #0x7F
   079B 7F                 3173 	.db #0x7F
   079C 7F                 3174 	.db #0x7F
   079D 41                 3175 	.db #0x41
   079E 7F                 3176 	.db #0x7F
   079F 52                 3177 	.db #0x52
   07A0 7E                 3178 	.db #0x7E
   07A1 60                 3179 	.db #0x60
   07A2 7E                 3180 	.db #0x7E
   07A3 9E                 3181 	.db #0x9E
   07A4 FF                 3182 	.db #0xFF
   07A5 9E                 3183 	.db #0x9E
   07A6 FF                 3184 	.db #0xFF
   07A7 21                 3185 	.db #0x21
   07A8 21                 3186 	.db #0x21
   07A9 FE                 3187 	.db #0xFE
   07AA FE                 3188 	.db #0xFE
   07AB FE                 3189 	.db #0xFE
   07AC FE                 3190 	.db #0xFE
   07AD 82                 3191 	.db #0x82
   07AE FE                 3192 	.db #0xFE
   07AF 4A                 3193 	.db #0x4A
   07B0 7E                 3194 	.db #0x7E
   07B1 06                 3195 	.db #0x06
   07B2 7E                 3196 	.db #0x7E
   07B3 79                 3197 	.db #0x79
   07B4 FF                 3198 	.db #0xFF
   07B5 79                 3199 	.db #0x79
   07B6 FF                 3200 	.db #0xFF
   07B7 84                 3201 	.db #0x84
   07B8 84                 3202 	.db #0x84
   07B9 FF                 3203 	.db #0xFF
   07BA FF                 3204 	.db #0xFF
   07BB FF                 3205 	.db #0xFF
   07BC FF                 3206 	.db #0xFF
   07BD FF                 3207 	.db #0xFF
   07BE FF                 3208 	.db #0xFF
   07BF 7E                 3209 	.db #0x7E
   07C0 7E                 3210 	.db #0x7E
   07C1 7E                 3211 	.db #0x7E
   07C2 7E                 3212 	.db #0x7E
   07C3 7E                 3213 	.db #0x7E
   07C4 FF                 3214 	.db #0xFF
   07C5 7E                 3215 	.db #0x7E
   07C6 FF                 3216 	.db #0xFF
   07C7 42                 3217 	.db #0x42
   07C8 42                 3218 	.db #0x42
   07C9 FE                 3219 	.db #0xFE
   07CA FE                 3220 	.db #0xFE
   07CB FE                 3221 	.db #0xFE
   07CC FE                 3222 	.db #0xFE
   07CD 82                 3223 	.db #0x82
   07CE FE                 3224 	.db #0xFE
   07CF 4A                 3225 	.db #0x4A
   07D0 7E                 3226 	.db #0x7E
   07D1 06                 3227 	.db #0x06
   07D2 7E                 3228 	.db #0x7E
   07D3 79                 3229 	.db #0x79
   07D4 FF                 3230 	.db #0xFF
   07D5 79                 3231 	.db #0x79
   07D6 FF                 3232 	.db #0xFF
   07D7 42                 3233 	.db #0x42
   07D8 42                 3234 	.db #0x42
   07D9 7F                 3235 	.db #0x7F
   07DA 7F                 3236 	.db #0x7F
   07DB 7F                 3237 	.db #0x7F
   07DC 7F                 3238 	.db #0x7F
   07DD 41                 3239 	.db #0x41
   07DE 7F                 3240 	.db #0x7F
   07DF 52                 3241 	.db #0x52
   07E0 7E                 3242 	.db #0x7E
   07E1 60                 3243 	.db #0x60
   07E2 7E                 3244 	.db #0x7E
   07E3 9E                 3245 	.db #0x9E
   07E4 FF                 3246 	.db #0xFF
   07E5 9E                 3247 	.db #0x9E
   07E6 FF                 3248 	.db #0xFF
   07E7 00                 3249 	.db #0x00
   07E8 00                 3250 	.db #0x00
   07E9 FF                 3251 	.db #0xFF
   07EA FF                 3252 	.db #0xFF
   07EB FF                 3253 	.db #0xFF
   07EC FF                 3254 	.db #0xFF
   07ED FF                 3255 	.db #0xFF
   07EE FF                 3256 	.db #0xFF
   07EF 7E                 3257 	.db #0x7E
   07F0 7E                 3258 	.db #0x7E
   07F1 7E                 3259 	.db #0x7E
   07F2 7E                 3260 	.db #0x7E
   07F3 7E                 3261 	.db #0x7E
   07F4 FF                 3262 	.db #0xFF
   07F5 7E                 3263 	.db #0x7E
   07F6 FF                 3264 	.db #0xFF
   07F7 00                 3265 	.db #0x00
   07F8 00                 3266 	.db #0x00
   07F9                    3267 _epee:
   07F9 00                 3268 	.db #0x00
   07FA 00                 3269 	.db #0x00
   07FB 00                 3270 	.db #0x00
   07FC 00                 3271 	.db #0x00
   07FD 00                 3272 	.db #0x00
   07FE 00                 3273 	.db #0x00
   07FF 00                 3274 	.db #0x00
   0800 10                 3275 	.db #0x10
   0801 00                 3276 	.db #0x00
   0802 10                 3277 	.db #0x10
   0803 00                 3278 	.db #0x00
   0804 10                 3279 	.db #0x10
   0805 38                 3280 	.db #0x38
   0806 38                 3281 	.db #0x38
   0807 10                 3282 	.db #0x10
   0808 10                 3283 	.db #0x10
   0809 10                 3284 	.db #0x10
   080A 10                 3285 	.db #0x10
   080B 38                 3286 	.db #0x38
   080C 38                 3287 	.db #0x38
   080D 00                 3288 	.db #0x00
   080E 10                 3289 	.db #0x10
   080F 00                 3290 	.db #0x00
   0810 10                 3291 	.db #0x10
   0811 00                 3292 	.db #0x00
   0812 10                 3293 	.db #0x10
   0813 00                 3294 	.db #0x00
   0814 00                 3295 	.db #0x00
   0815 00                 3296 	.db #0x00
   0816 00                 3297 	.db #0x00
   0817 00                 3298 	.db #0x00
   0818 00                 3299 	.db #0x00
   0819 00                 3300 	.db #0x00
   081A 00                 3301 	.db #0x00
   081B 00                 3302 	.db #0x00
   081C 00                 3303 	.db #0x00
   081D 00                 3304 	.db #0x00
   081E 00                 3305 	.db #0x00
   081F 40                 3306 	.db #0x40
   0820 40                 3307 	.db #0x40
   0821 C0                 3308 	.db #0xC0
   0822 F8                 3309 	.db #0xF8
   0823 40                 3310 	.db #0x40
   0824 40                 3311 	.db #0x40
   0825 00                 3312 	.db #0x00
   0826 00                 3313 	.db #0x00
   0827 00                 3314 	.db #0x00
   0828 00                 3315 	.db #0x00
   0829 00                 3316 	.db #0x00
   082A 00                 3317 	.db #0x00
   082B 00                 3318 	.db #0x00
   082C 00                 3319 	.db #0x00
   082D 00                 3320 	.db #0x00
   082E 00                 3321 	.db #0x00
   082F 02                 3322 	.db #0x02
   0830 02                 3323 	.db #0x02
   0831 03                 3324 	.db #0x03
   0832 1F                 3325 	.db #0x1F
   0833 02                 3326 	.db #0x02
   0834 02                 3327 	.db #0x02
   0835 00                 3328 	.db #0x00
   0836 00                 3329 	.db #0x00
   0837 00                 3330 	.db #0x00
   0838 00                 3331 	.db #0x00
   0839                    3332 _meuf:
   0839 FE                 3333 	.db #0xFE
   083A FE                 3334 	.db #0xFE
   083B E6                 3335 	.db #0xE6
   083C FE                 3336 	.db #0xFE
   083D C2                 3337 	.db #0xC2
   083E D2                 3338 	.db #0xD2
   083F AB                 3339 	.db #0xAB
   0840 BB                 3340 	.db #0xBB
   0841 83                 3341 	.db #0x83
   0842 FF                 3342 	.db #0xFF
   0843 7D                 3343 	.db #0x7D
   0844 FF                 3344 	.db #0xFF
   0845 7C                 3345 	.db #0x7C
   0846 FE                 3346 	.db #0xFE
   0847 44                 3347 	.db #0x44
   0848 44                 3348 	.db #0x44
   0849                    3349 _vioc:
   0849 1C                 3350 	.db #0x1C
   084A 1C                 3351 	.db #0x1C
   084B 2A                 3352 	.db #0x2A
   084C 3E                 3353 	.db #0x3E
   084D 2A                 3354 	.db #0x2A
   084E 2A                 3355 	.db #0x2A
   084F 1C                 3356 	.db #0x1C
   0850 3E                 3357 	.db #0x3E
   0851 00                 3358 	.db #0x00
   0852 3E                 3359 	.db #0x3E
   0853 41                 3360 	.db #0x41
   0854 5D                 3361 	.db #0x5D
   0855 14                 3362 	.db #0x14
   0856 1C                 3363 	.db #0x1C
   0857 36                 3364 	.db #0x36
   0858 3E                 3365 	.db #0x3E
   0859                    3366 _enemi:
   0859 38                 3367 	.db #0x38
   085A 38                 3368 	.db #0x38
   085B 54                 3369 	.db #0x54
   085C 54                 3370 	.db #0x54
   085D 38                 3371 	.db #0x38
   085E 38                 3372 	.db #0x38
   085F 10                 3373 	.db #0x10
   0860 10                 3374 	.db #0x10
   0861 7C                 3375 	.db #0x7C
   0862 7C                 3376 	.db #0x7C
   0863 10                 3377 	.db #0x10
   0864 10                 3378 	.db #0x10
   0865 28                 3379 	.db #0x28
   0866 28                 3380 	.db #0x28
   0867 44                 3381 	.db #0x44
   0868 44                 3382 	.db #0x44
                           3383 ;	\\gbdk\\libc\\malloc.c 42
                           3384 ; genLabel
                           3385 ; genFunction
                           3386 ;	---------------------------------
                           3387 ; Function malloc_init
                           3388 ; ---------------------------------
   0869                    3389 ___malloc_init_start:
   0869                    3390 _malloc_init:
   0869 C5                 3391 	push	bc
                           3392 	
                           3393 ;	\\gbdk\\libc\\malloc.c 44
                           3394 ; genAssign
                           3395 ; AOP_HL for _malloc_first
   086A 21 00 00           3396 	ld	hl,#_malloc_first + 0
   086D 5E                 3397 	ld	e,(hl)
   086E 23                 3398 	inc	hl
   086F 56                 3399 	ld	d,(hl)
                           3400 ; genPointerGet
   0870 1A                 3401 	ld	a,(de)
   0871 4F                 3402 	ld	c,a
                           3403 ; genCmpEq
   0872 79                 3404 	ld	a,c ; 2
   0873 FE 7B              3405 	cp	a,#0x7B
                           3406 ; Rule 5
   0875 CA BE 08           3407 	jp	z,00102$
   0878                    3408 00106$:
                           3409 ;	\\gbdk\\libc\\malloc.c 47
                           3410 ; genIpush
   0878 21 CE 08           3411 	ld	hl,#__str_1 + 0
   087B E5                 3412 	push	hl
                           3413 ; genIpush
   087C 21 C2 08           3414 	ld	hl,#__str_0 + 0
   087F E5                 3415 	push	hl
                           3416 ; genCall
   0880 CD 00 00           3417 	call	_debug
   0883 E8 04              3418 	lda	sp,4(sp)
                           3419 ;	\\gbdk\\libc\\malloc.c 49
                           3420 ; genAssign
                           3421 ; AOP_HL for _malloc_first
   0885 21 00 00           3422 	ld	hl,#_malloc_first + 0
   0888 36 00              3423 	ld	(hl),#<_malloc_heap_start
   088A 23                 3424 	inc	hl
   088B 36 00              3425 	ld	(hl),#>_malloc_heap_start
                           3426 ;	\\gbdk\\libc\\malloc.c 52
                           3427 ; genPlus
                           3428 ; genPlusIncr
   088D 11 01 00           3429 	ld	de,#_malloc_heap_start + 0 + 1
                           3430 ; genAssign (pointer)
   0890 3E 00              3431 	ld	a,#0x00
   0892 12                 3432 	ld	(de),a
   0893 13                 3433 	inc	de
   0894 3E 00              3434 	ld	a,#0x00
   0896 12                 3435 	ld	(de),a
                           3436 ;	\\gbdk\\libc\\malloc.c 54
                           3437 ; genPlus
                           3438 ; genPlusIncr
   0897 11 03 00           3439 	ld	de,#_malloc_heap_start + 0 + 3
                           3440 ; genMinus
   089A 3E F8              3441 	ld	a,#0xF8
   089C D6 07              3442 	sub	a,#<_malloc_heap_start
   089E 4F                 3443 	ld	c,a
   089F 3E DD              3444 	ld	a,#0xDD
   08A1 DE 00              3445 	sbc	a,#>_malloc_heap_start
   08A3 47                 3446 	ld	b,a
                           3447 ; genAssign (pointer)
   08A4 79                 3448 	ld	a,c
   08A5 12                 3449 	ld	(de),a
   08A6 13                 3450 	inc	de
   08A7 78                 3451 	ld	a,b
   08A8 12                 3452 	ld	(de),a
                           3453 ;	\\gbdk\\libc\\malloc.c 55
                           3454 ; genPlus
                           3455 ; genPlusIncr
   08A9 11 05 00           3456 	ld	de,#_malloc_heap_start + 0 + 5
                           3457 ; genAssign (pointer)
   08AC 3E 01              3458 	ld	a,#0x01
   08AE 12                 3459 	ld	(de),a
   08AF 13                 3460 	inc	de
   08B0 3E 00              3461 	ld	a,#0x00
   08B2 12                 3462 	ld	(de),a
                           3463 ;	\\gbdk\\libc\\malloc.c 57
                           3464 ; genAssign (pointer)
   08B3 11 00 00           3465 	ld	de,#_malloc_heap_start + 0
   08B6 3E 7B              3466 	ld	a,#0x7B
   08B8 12                 3467 	ld	(de),a
                           3468 ;	\\gbdk\\libc\\malloc.c 58
                           3469 ; genRet
   08B9 1E 00              3470 	ld	e,#0x00
   08BB C3 C0 08           3471 	jp	00103$
                           3472 ; genLabel
   08BE                    3473 00102$:
                           3474 ;	\\gbdk\\libc\\malloc.c 60
                           3475 ; genRet
   08BE 1E FF              3476 	ld	e,#0xFF
                           3477 ; genLabel
   08C0                    3478 00103$:
                           3479 ; genEndFunction
                           3480 	
   08C0 C1                 3481 	pop	bc
   08C1 C9                 3482 	ret
   08C2                    3483 ___malloc_init_end:
   08C2                    3484 __str_0:
   08C2 6D 61 6C 6C 6F 63  3485 	.ascii "malloc_init"
        5F 69 6E 69 74
   08CD 00                 3486 	.db 0x00
   08CE                    3487 __str_1:
   08CE 53 65 74 74 69 6E  3488 	.ascii "Setting up"
        67 20 75 70
   08D8 00                 3489 	.db 0x00
                           3490 ;	\\gbdk\\libc\\malloc.c 120
                           3491 ; genLabel
                           3492 ; genFunction
                           3493 ;	---------------------------------
                           3494 ; Function malloc
                           3495 ; ---------------------------------
   08D9                    3496 ___malloc_start:
   08D9                    3497 _malloc:
   08D9 C5                 3498 	push	bc
   08DA E8 E7              3499 	lda	sp,-25(sp)
                           3500 ;	\\gbdk\\libc\\malloc.c 130
                           3501 ; genAssign
                           3502 ; AOP_HL for _malloc_first
   08DC 21 00 00           3503 	ld	hl,#_malloc_first + 0
   08DF 5E                 3504 	ld	e,(hl)
   08E0 23                 3505 	inc	hl
   08E1 56                 3506 	ld	d,(hl)
                           3507 ; genPointerGet
   08E2 1A                 3508 	ld	a,(de)
   08E3 4F                 3509 	ld	c,a
                           3510 ; genCmpEq
   08E4 79                 3511 	ld	a,c ; 2
   08E5 FE 7B              3512 	cp	a,#0x7B
                           3513 ; Rule 5
   08E7 CA F1 08           3514 	jp	z,00102$
   08EA                    3515 00124$:
                           3516 ;	\\gbdk\\libc\\malloc.c 131
                           3517 ; genCall
   08EA CD 00 00           3518 	call	banked_call
   08ED 69 08              3519 	.dw	_malloc_init
   08EF 00 00              3520 	.dw 0	; PENDING: bank support
                           3521 ; genLabel
   08F1                    3522 00102$:
                           3523 ;	\\gbdk\\libc\\malloc.c 133
                           3524 ; genAssign
                           3525 ; AOP_STK for _malloc_firstTry_1_1
   08F1 F8 14              3526 	lda	hl,20(sp)
   08F3 36 01              3527 	ld	(hl),#0x01
                           3528 ;	\\gbdk\\libc\\malloc.c 135
                           3529 ; genLabel
   08F5                    3530 00111$:
                           3531 ;	\\gbdk\\libc\\malloc.c 136
                           3532 ; genAssign
                           3533 ; AOP_HL for _malloc_first
                           3534 ; AOP_STK for _malloc_thisHunk_1_1
   08F5 21 00 00           3535 	ld	hl,#_malloc_first + 0
   08F8 2A                 3536 	ld	a,(hl+)
   08F9 5E                 3537 	ld	e,(hl)
   08FA F8 17              3538 	lda	hl,23(sp)
   08FC 22                 3539 	ld	(hl+),a
   08FD 73                 3540 	ld	(hl),e
                           3541 ;	\\gbdk\\libc\\malloc.c 139
                           3542 ; genPlus
                           3543 ; AOP_STK for 
                           3544 ; AOP_STK for _malloc_sloc0_1_0
                           3545 ; genPlusIncr
                           3546 ;	genPlusIncr failed
   08FE F8 21              3547 	lda	hl,33(sp)
   0900 5E                 3548 	ld	e,(hl)
   0901 23                 3549 	inc	hl
   0902 56                 3550 	ld	d,(hl)
   0903 21 07 00           3551 	ld	hl,#0x0007
   0906 19                 3552 	add	hl,de
   0907 7D                 3553 	ld	a,l
   0908 54                 3554 	ld	d,h
   0909 F8 12              3555 	lda	hl,18(sp)
   090B 22                 3556 	ld	(hl+),a
   090C 72                 3557 	ld	(hl),d
                           3558 ; genLabel
   090D                    3559 00108$:
                           3560 ; genIfx
                           3561 ; AOP_STK for _malloc_thisHunk_1_1
   090D F8 17              3562 	lda	hl,23(sp)
                           3563 ; Rule 8
   090F 2A                 3564 	ld	a,(hl+)
   0910 B6                 3565 	or	a,(hl)
   0911 CA A5 0A           3566 	jp	z,00110$
                           3567 ; genPointerGet
                           3568 ; AOP_STK for _malloc_thisHunk_1_1
                           3569 ; AOP_STK for _malloc_sloc2_1_0
   0914 2B                 3570 	dec	hl
   0915 5E                 3571 	ld	e,(hl)
   0916 23                 3572 	inc	hl
   0917 56                 3573 	ld	d,(hl)
   0918 1A                 3574 	ld	a,(de)
   0919 F8 10              3575 	lda	hl,16(sp)
   091B 77                 3576 	ld	(hl),a
                           3577 ; genCmpEq
                           3578 ; AOP_STK for _malloc_sloc2_1_0
                           3579 ; AOP_STK for _malloc_sloc1_1_0
   091C 7E                 3580 	ld	a,(hl) ; 2
   091D FE 7B              3581 	cp	a,#0x7B
   091F C2 26 09           3582 	jp	nz,00125$
   0922 3E 01              3583 	ld	a,#0x01
   0924 18 01              3584 	jr	00126$
   0926                    3585 00125$:
   0926 AF                 3586 	xor	a,a
   0927                    3587 00126$:
   0927 F8 11              3588 	lda	hl,17(sp)
   0929 77                 3589 	ld	(hl),a
                           3590 ; genIfx
                           3591 ; AOP_STK for _malloc_sloc1_1_0
                           3592 ; Removed redundent or a,a
   092A AF                 3593 	xor	a,a
   092B B6                 3594 	or	a,(hl)
   092C CA A5 0A           3595 	jp	z,00110$
                           3596 ;	\\gbdk\\libc\\malloc.c 140
                           3597 ; genIpush
   092F 21 BF 0A           3598 	ld	hl,#__str_7 + 0
   0932 E5                 3599 	push	hl
                           3600 ; genIpush
   0933 21 B8 0A           3601 	ld	hl,#__str_6 + 0
   0936 E5                 3602 	push	hl
                           3603 ; genCall
   0937 CD 00 00           3604 	call	_debug
   093A E8 04              3605 	lda	sp,4(sp)
                           3606 ;	\\gbdk\\libc\\malloc.c 141
                           3607 ; genPlus
                           3608 ; AOP_STK for _malloc_thisHunk_1_1
                           3609 ; AOP_STK for _malloc_sloc4_1_0
                           3610 ; genPlusIncr
                           3611 ;	genPlusIncr failed
   093C F8 17              3612 	lda	hl,23(sp)
   093E 5E                 3613 	ld	e,(hl)
   093F 23                 3614 	inc	hl
   0940 56                 3615 	ld	d,(hl)
   0941 21 05 00           3616 	ld	hl,#0x0005
   0944 19                 3617 	add	hl,de
   0945 7D                 3618 	ld	a,l
   0946 54                 3619 	ld	d,h
   0947 F8 0C              3620 	lda	hl,12(sp)
   0949 22                 3621 	ld	(hl+),a
   094A 72                 3622 	ld	(hl),d
                           3623 ; genPointerGet
                           3624 ; AOP_STK for _malloc_sloc4_1_0
                           3625 ; AOP_STK for _malloc_sloc3_1_0
   094B 2B                 3626 	dec	hl
   094C 5E                 3627 	ld	e,(hl)
   094D 23                 3628 	inc	hl
   094E 56                 3629 	ld	d,(hl)
   094F 1A                 3630 	ld	a,(de)
   0950 23                 3631 	inc	hl
   0951 77                 3632 	ld	(hl),a
   0952 13                 3633 	inc	de
   0953 1A                 3634 	ld	a,(de)
   0954 23                 3635 	inc	hl
   0955 77                 3636 	ld	(hl),a
                           3637 ; genCmpEq
                           3638 ; AOP_STK for _malloc_sloc3_1_0
                           3639 ; AOP_STK for _malloc_sloc5_1_0
   0956 2B                 3640 	dec	hl
   0957 7E                 3641 	ld	a,(hl) ; 2
   0958 FE 01              3642 	cp	a,#0x01
   095A C2 67 09           3643 	jp	nz,00127$
   095D 23                 3644 	inc	hl
   095E 7E                 3645 	ld	a,(hl) ; 2
                           3646 ; Rule 3
   095F B7                 3647 	or	a,a
   0960 C2 67 09           3648 	jp	nz,00127$
   0963 3E 01              3649 	ld	a,#0x01
   0965 18 01              3650 	jr	00128$
   0967                    3651 00127$:
   0967 AF                 3652 	xor	a,a
   0968                    3653 00128$:
   0968 F8 0B              3654 	lda	hl,11(sp)
   096A 77                 3655 	ld	(hl),a
                           3656 ; genIfx
                           3657 ; AOP_STK for _malloc_sloc5_1_0
                           3658 ; Removed redundent or a,a
   096B AF                 3659 	xor	a,a
   096C B6                 3660 	or	a,(hl)
   096D CA 93 0A           3661 	jp	z,00106$
                           3662 ;	\\gbdk\\libc\\malloc.c 142
                           3663 ; genIpush
   0970 21 D4 0A           3664 	ld	hl,#__str_9 + 0
   0973 E5                 3665 	push	hl
                           3666 ; genIpush
   0974 21 CD 0A           3667 	ld	hl,#__str_8 + 0
   0977 E5                 3668 	push	hl
                           3669 ; genCall
   0978 CD 00 00           3670 	call	_debug
   097B E8 04              3671 	lda	sp,4(sp)
                           3672 ;	\\gbdk\\libc\\malloc.c 145
                           3673 ; genPlus
                           3674 ; AOP_STK for _malloc_thisHunk_1_1
                           3675 ; AOP_STK for _malloc_sloc7_1_0
                           3676 ; genPlusIncr
                           3677 ;	genPlusIncr failed
   097D F8 17              3678 	lda	hl,23(sp)
   097F 5E                 3679 	ld	e,(hl)
   0980 23                 3680 	inc	hl
   0981 56                 3681 	ld	d,(hl)
   0982 21 03 00           3682 	ld	hl,#0x0003
   0985 19                 3683 	add	hl,de
   0986 7D                 3684 	ld	a,l
   0987 54                 3685 	ld	d,h
   0988 F8 07              3686 	lda	hl,7(sp)
   098A 22                 3687 	ld	(hl+),a
   098B 72                 3688 	ld	(hl),d
                           3689 ; genPointerGet
                           3690 ; AOP_STK for _malloc_sloc7_1_0
                           3691 ; AOP_STK for _malloc_sloc6_1_0
   098C 2B                 3692 	dec	hl
   098D 5E                 3693 	ld	e,(hl)
   098E 23                 3694 	inc	hl
   098F 56                 3695 	ld	d,(hl)
   0990 1A                 3696 	ld	a,(de)
   0991 23                 3697 	inc	hl
   0992 77                 3698 	ld	(hl),a
   0993 13                 3699 	inc	de
   0994 1A                 3700 	ld	a,(de)
   0995 23                 3701 	inc	hl
   0996 77                 3702 	ld	(hl),a
                           3703 ; genCmpLt
                           3704 ; AOP_STK for _malloc_sloc6_1_0
                           3705 ; AOP_STK for _malloc_sloc0_1_0
                           3706 ; AOP_STK for _malloc_sloc8_1_0
   0997 AF                 3707 	xor	a,a
   0998 2B                 3708 	dec	hl
   0999 7E                 3709 	ld	a,(hl)
   099A F8 12              3710 	lda	hl,18(sp)
   099C 9E                 3711 	sbc	a,(hl) ; 2
   099D F8 0A              3712 	lda	hl,10(sp)
   099F 7E                 3713 	ld	a,(hl)
   09A0 F8 13              3714 	lda	hl,19(sp)
   09A2 9E                 3715 	sbc	a,(hl) ; 2
   09A3 3E 00              3716 	ld	a,#0x00
   09A5 17                 3717 	rla
   09A6 F8 06              3718 	lda	hl,6(sp)
   09A8 77                 3719 	ld	(hl),a
                           3720 ; genIfx
                           3721 ; AOP_STK for _malloc_sloc8_1_0
                           3722 ; Removed redundent or a,a
   09A9 AF                 3723 	xor	a,a
   09AA B6                 3724 	or	a,(hl)
   09AB C2 93 0A           3725 	jp	nz,00106$
                           3726 ;	\\gbdk\\libc\\malloc.c 147
                           3727 ; genIpush
   09AE 21 EB 0A           3728 	ld	hl,#__str_11 + 0
   09B1 E5                 3729 	push	hl
                           3730 ; genIpush
   09B2 21 E4 0A           3731 	ld	hl,#__str_10 + 0
   09B5 E5                 3732 	push	hl
                           3733 ; genCall
   09B6 CD 00 00           3734 	call	_debug
   09B9 E8 04              3735 	lda	sp,4(sp)
                           3736 ;	\\gbdk\\libc\\malloc.c 152
                           3737 ; genAssign
                           3738 ; AOP_STK for _malloc_thisHunk_1_1
                           3739 ; (registers are the same)
                           3740 ; genAssign
                           3741 ; AOP_STK for 
                           3742 ; AOP_STK for _malloc_sloc9_1_0
   09BB F8 21              3743 	lda	hl,33(sp)
   09BD 2A                 3744 	ld	a,(hl+)
   09BE 5E                 3745 	ld	e,(hl)
   09BF F8 04              3746 	lda	hl,4(sp)
   09C1 22                 3747 	ld	(hl+),a
   09C2 73                 3748 	ld	(hl),e
                           3749 ; genPlus
                           3750 ; AOP_STK for _malloc_thisHunk_1_1
                           3751 ; AOP_STK for _malloc_sloc9_1_0
                           3752 ; AOP_STK for _malloc_sloc0_1_0
                           3753 ;	genPlusIncr failed
   09C3 F8 17              3754 	lda	hl,23(sp)
   09C5 5E                 3755 	ld	e,(hl)
   09C6 23                 3756 	inc	hl
   09C7 56                 3757 	ld	d,(hl)
   09C8 F8 04              3758 	lda	hl,4(sp)
   09CA 2A                 3759 	ld	a,(hl+)
   09CB 66                 3760 	ld	h,(hl)
   09CC 6F                 3761 	ld	l,a
   09CD 19                 3762 	add	hl,de
   09CE 7D                 3763 	ld	a,l
   09CF 54                 3764 	ld	d,h
   09D0 F8 12              3765 	lda	hl,18(sp)
   09D2 22                 3766 	ld	(hl+),a
   09D3 72                 3767 	ld	(hl),d
                           3768 ; genPlus
                           3769 ; AOP_STK for _malloc_sloc0_1_0
                           3770 ; AOP_STK for _malloc_newHunk_1_1
                           3771 ; genPlusIncr
                           3772 ;	genPlusIncr failed
   09D4 2B                 3773 	dec	hl
   09D5 5E                 3774 	ld	e,(hl)
   09D6 23                 3775 	inc	hl
   09D7 56                 3776 	ld	d,(hl)
   09D8 21 07 00           3777 	ld	hl,#0x0007
   09DB 19                 3778 	add	hl,de
   09DC 7D                 3779 	ld	a,l
   09DD 54                 3780 	ld	d,h
   09DE F8 15              3781 	lda	hl,21(sp)
   09E0 22                 3782 	ld	(hl+),a
   09E1 72                 3783 	ld	(hl),d
                           3784 ;	\\gbdk\\libc\\malloc.c 153
                           3785 ; genPlus
                           3786 ; AOP_STK for _malloc_newHunk_1_1
                           3787 ; AOP_STK for _malloc_sloc0_1_0
                           3788 ; genPlusIncr
                           3789 ;	genPlusIncr failed
   09E2 2B                 3790 	dec	hl
   09E3 5E                 3791 	ld	e,(hl)
   09E4 23                 3792 	inc	hl
   09E5 56                 3793 	ld	d,(hl)
   09E6 21 01 00           3794 	ld	hl,#0x0001
   09E9 19                 3795 	add	hl,de
   09EA 7D                 3796 	ld	a,l
   09EB 54                 3797 	ld	d,h
   09EC F8 12              3798 	lda	hl,18(sp)
   09EE 22                 3799 	ld	(hl+),a
   09EF 72                 3800 	ld	(hl),d
                           3801 ; genPlus
                           3802 ; AOP_STK for _malloc_thisHunk_1_1
                           3803 ; AOP_STK for _malloc_sloc11_1_0
                           3804 ; genPlusIncr
                           3805 ;	genPlusIncr failed
   09F0 F8 17              3806 	lda	hl,23(sp)
   09F2 5E                 3807 	ld	e,(hl)
   09F3 23                 3808 	inc	hl
   09F4 56                 3809 	ld	d,(hl)
   09F5 21 01 00           3810 	ld	hl,#0x0001
   09F8 19                 3811 	add	hl,de
   09F9 7D                 3812 	ld	a,l
   09FA 54                 3813 	ld	d,h
   09FB F8 00              3814 	lda	hl,0(sp)
   09FD 22                 3815 	ld	(hl+),a
   09FE 72                 3816 	ld	(hl),d
                           3817 ; genPointerGet
                           3818 ; AOP_STK for _malloc_sloc11_1_0
                           3819 ; AOP_STK for _malloc_sloc10_1_0
   09FF 2B                 3820 	dec	hl
   0A00 5E                 3821 	ld	e,(hl)
   0A01 23                 3822 	inc	hl
   0A02 56                 3823 	ld	d,(hl)
   0A03 1A                 3824 	ld	a,(de)
   0A04 23                 3825 	inc	hl
   0A05 77                 3826 	ld	(hl),a
   0A06 13                 3827 	inc	de
   0A07 1A                 3828 	ld	a,(de)
   0A08 23                 3829 	inc	hl
   0A09 77                 3830 	ld	(hl),a
                           3831 ; genAssign (pointer)
                           3832 ; AOP_STK for _malloc_sloc0_1_0
                           3833 ; AOP_STK for _malloc_sloc10_1_0
   0A0A F8 12              3834 	lda	hl,18(sp)
   0A0C 5E                 3835 	ld	e,(hl)
   0A0D 23                 3836 	inc	hl
   0A0E 56                 3837 	ld	d,(hl)
   0A0F F8 02              3838 	lda	hl,2(sp)
   0A11 7E                 3839 	ld	a,(hl)
   0A12 12                 3840 	ld	(de),a
   0A13 13                 3841 	inc	de
   0A14 23                 3842 	inc	hl
   0A15 7E                 3843 	ld	a,(hl)
   0A16 12                 3844 	ld	(de),a
                           3845 ;	\\gbdk\\libc\\malloc.c 155
                           3846 ; genPlus
                           3847 ; AOP_STK for _malloc_newHunk_1_1
                           3848 ; genPlusIncr
                           3849 ;	genPlusIncr failed
   0A17 F8 15              3850 	lda	hl,21(sp)
   0A19 5E                 3851 	ld	e,(hl)
   0A1A 23                 3852 	inc	hl
   0A1B 56                 3853 	ld	d,(hl)
   0A1C 21 03 00           3854 	ld	hl,#0x0003
   0A1F 19                 3855 	add	hl,de
   0A20 5D                 3856 	ld	e,l
   0A21 54                 3857 	ld	d,h
                           3858 ; genMinus
                           3859 ; AOP_STK for _malloc_sloc6_1_0
   0A22 F8 09              3860 	lda	hl,9(sp)
   0A24 5E                 3861 	ld	e,(hl)
   0A25 23                 3862 	inc	hl
   0A26 56                 3863 	ld	d,(hl)
   0A27 21 07 00           3864 	ld	hl,#0x0007
   0A2A 7B                 3865 	ld	a,e
   0A2B 95                 3866 	sub	a,l
   0A2C 5F                 3867 	ld	e,a
   0A2D 7A                 3868 	ld	a,d
   0A2E 9C                 3869 	sbc	a,h
   0A2F 47                 3870 	ld	b,a
   0A30 4B                 3871 	ld	c,e
                           3872 ; genMinus
                           3873 ; AOP_STK for _malloc_sloc9_1_0
                           3874 ; Removed redundent load
                           3875 ; Removed redundent load
   0A31 F8 04              3876 	lda	hl,4(sp)
   0A33 5E                 3877 	ld	e,(hl)
   0A34 23                 3878 	inc	hl
   0A35 56                 3879 	ld	d,(hl)
   0A36 79                 3880 	ld	a,c
   0A37 93                 3881 	sub	a,e
   0A38 5F                 3882 	ld	e,a
   0A39 78                 3883 	ld	a,b
   0A3A 9A                 3884 	sbc	a,d
   0A3B 47                 3885 	ld	b,a
   0A3C 4B                 3886 	ld	c,e
                           3887 ; genAssign (pointer)
   0A3D 79                 3888 	ld	a,c
   0A3E 12                 3889 	ld	(de),a
   0A3F 13                 3890 	inc	de
   0A40 78                 3891 	ld	a,b
   0A41 12                 3892 	ld	(de),a
                           3893 ;	\\gbdk\\libc\\malloc.c 157
                           3894 ; genPlus
                           3895 ; AOP_STK for _malloc_newHunk_1_1
                           3896 ; genPlusIncr
                           3897 ;	genPlusIncr failed
   0A42 F8 15              3898 	lda	hl,21(sp)
   0A44 5E                 3899 	ld	e,(hl)
   0A45 23                 3900 	inc	hl
   0A46 56                 3901 	ld	d,(hl)
   0A47 21 05 00           3902 	ld	hl,#0x0005
   0A4A 19                 3903 	add	hl,de
   0A4B 5D                 3904 	ld	e,l
   0A4C 54                 3905 	ld	d,h
                           3906 ; genAssign (pointer)
   0A4D 3E 01              3907 	ld	a,#0x01
   0A4F 12                 3908 	ld	(de),a
   0A50 13                 3909 	inc	de
   0A51 3E 00              3910 	ld	a,#0x00
   0A53 12                 3911 	ld	(de),a
                           3912 ;	\\gbdk\\libc\\malloc.c 158
                           3913 ; genAssign (pointer)
                           3914 ; AOP_STK for _malloc_newHunk_1_1
   0A54 F8 15              3915 	lda	hl,21(sp)
   0A56 5E                 3916 	ld	e,(hl)
   0A57 23                 3917 	inc	hl
   0A58 56                 3918 	ld	d,(hl)
   0A59 3E 7B              3919 	ld	a,#0x7B
   0A5B 12                 3920 	ld	(de),a
                           3921 ;	\\gbdk\\libc\\malloc.c 161
                           3922 ; genAssign (pointer)
                           3923 ; AOP_STK for _malloc_sloc7_1_0
                           3924 ; AOP_STK for _malloc_sloc9_1_0
   0A5C F8 07              3925 	lda	hl,7(sp)
   0A5E 5E                 3926 	ld	e,(hl)
   0A5F 23                 3927 	inc	hl
   0A60 56                 3928 	ld	d,(hl)
   0A61 F8 04              3929 	lda	hl,4(sp)
   0A63 7E                 3930 	ld	a,(hl)
   0A64 12                 3931 	ld	(de),a
   0A65 13                 3932 	inc	de
   0A66 23                 3933 	inc	hl
   0A67 7E                 3934 	ld	a,(hl)
   0A68 12                 3935 	ld	(de),a
                           3936 ;	\\gbdk\\libc\\malloc.c 162
                           3937 ; genAssign (pointer)
                           3938 ; AOP_STK for _malloc_sloc4_1_0
   0A69 F8 0C              3939 	lda	hl,12(sp)
   0A6B 5E                 3940 	ld	e,(hl)
   0A6C 23                 3941 	inc	hl
   0A6D 56                 3942 	ld	d,(hl)
   0A6E 3E 02              3943 	ld	a,#0x02
   0A70 12                 3944 	ld	(de),a
   0A71 13                 3945 	inc	de
   0A72 3E 00              3946 	ld	a,#0x00
   0A74 12                 3947 	ld	(de),a
                           3948 ;	\\gbdk\\libc\\malloc.c 163
                           3949 ; genAssign (pointer)
                           3950 ; AOP_STK for _malloc_sloc11_1_0
                           3951 ; AOP_STK for _malloc_newHunk_1_1
   0A75 F8 00              3952 	lda	hl,0(sp)
   0A77 5E                 3953 	ld	e,(hl)
   0A78 23                 3954 	inc	hl
   0A79 56                 3955 	ld	d,(hl)
   0A7A F8 15              3956 	lda	hl,21(sp)
   0A7C 7E                 3957 	ld	a,(hl)
   0A7D 12                 3958 	ld	(de),a
   0A7E 13                 3959 	inc	de
   0A7F 23                 3960 	inc	hl
   0A80 7E                 3961 	ld	a,(hl)
   0A81 12                 3962 	ld	(de),a
                           3963 ;	\\gbdk\\libc\\malloc.c 166
                           3964 ; genAssign
                           3965 ; AOP_STK for _malloc_thisHunk_1_1
   0A82 23                 3966 	inc	hl
   0A83 4E                 3967 	ld	c,(hl)
   0A84 23                 3968 	inc	hl
   0A85 46                 3969 	ld	b,(hl)
                           3970 ; genPlus
                           3971 ; genPlusIncr
                           3972 ;	genPlusIncr failed
   0A86 79                 3973 	ld	a,c
   0A87 C6 07              3974 	add	a,#0x07
   0A89 4F                 3975 	ld	c,a
   0A8A 78                 3976 	ld	a,b
   0A8B CE 00              3977 	adc	a,#0x00
   0A8D 47                 3978 	ld	b,a
                           3979 ; genRet
   0A8E 59                 3980 	ld	e,c
   0A8F 50                 3981 	ld	d,b
   0A90 C3 B4 0A           3982 	jp	00114$
                           3983 ; genLabel
   0A93                    3984 00106$:
                           3985 ;	\\gbdk\\libc\\malloc.c 169
                           3986 ; genPlus
                           3987 ; AOP_STK for _malloc_thisHunk_1_1
                           3988 ; genPlusIncr
   0A93 F8 17              3989 	lda	hl,23(sp)
   0A95 5E                 3990 	ld	e,(hl)
   0A96 23                 3991 	inc	hl
   0A97 56                 3992 	ld	d,(hl)
   0A98 13                 3993 	inc	de
                           3994 ; genPointerGet
                           3995 ; Removed redundent load
                           3996 ; Removed redundent load
   0A99 1A                 3997 	ld	a,(de)
   0A9A 4F                 3998 	ld	c,a
   0A9B 13                 3999 	inc	de
   0A9C 1A                 4000 	ld	a,(de)
   0A9D 47                 4001 	ld	b,a
                           4002 ; genAssign
                           4003 ; AOP_STK for _malloc_thisHunk_1_1
   0A9E 2B                 4004 	dec	hl
   0A9F 71                 4005 	ld	(hl),c
   0AA0 23                 4006 	inc	hl
   0AA1 70                 4007 	ld	(hl),b
                           4008 ; genGoto
   0AA2 C3 0D 09           4009 	jp	00108$
                           4010 ; genLabel
   0AA5                    4011 00110$:
                           4012 ;	\\gbdk\\libc\\malloc.c 171
                           4013 ; genCall
   0AA5 CD 00 00           4014 	call	_malloc_gc
                           4015 ;	\\gbdk\\libc\\malloc.c 173
                           4016 ; genAssign
                           4017 ; AOP_STK for _malloc_firstTry_1_1
   0AA8 F8 14              4018 	lda	hl,20(sp)
   0AAA 4E                 4019 	ld	c,(hl)
                           4020 ; genMinus
                           4021 ; AOP_STK for _malloc_firstTry_1_1
   0AAB 35                 4022 	dec	(hl)
                           4023 ; genIfx
                           4024 ; Removed redundent or a,a
   0AAC AF                 4025 	xor	a,a
   0AAD B1                 4026 	or	a,c
   0AAE C2 F5 08           4027 	jp	nz,00111$
                           4028 ;	\\gbdk\\libc\\malloc.c 176
                           4029 ; genRet
   0AB1 11 00 00           4030 	ld	de,#0x0000
                           4031 ; genLabel
   0AB4                    4032 00114$:
                           4033 ; genEndFunction
   0AB4 E8 19              4034 	lda	sp,25(sp)
   0AB6 C1                 4035 	pop	bc
   0AB7 C9                 4036 	ret
   0AB8                    4037 ___malloc_end:
   0AB8                    4038 __str_6:
   0AB8 6D 61 6C 6C 6F 63  4039 	.ascii "malloc"
   0ABE 00                 4040 	.db 0x00
   0ABF                    4041 __str_7:
   0ABF 45 6E 74 65 72 69  4042 	.ascii "Entering hunk"
        6E 67 20 68 75 6E
        6B
   0ACC 00                 4043 	.db 0x00
   0ACD                    4044 __str_8:
   0ACD 6D 61 6C 6C 6F 63  4045 	.ascii "malloc"
   0AD3 00                 4046 	.db 0x00
   0AD4                    4047 __str_9:
   0AD4 46 6F 75 6E 64 20  4048 	.ascii "Found free hunk"
        66 72 65 65 20 68
        75 6E 6B
   0AE3 00                 4049 	.db 0x00
   0AE4                    4050 __str_10:
   0AE4 6D 61 6C 6C 6F 63  4051 	.ascii "malloc"
   0AEA 00                 4052 	.db 0x00
   0AEB                    4053 __str_11:
   0AEB 46 6F 75 6E 64 20  4054 	.ascii "Found a big enough hunk."
        61 20 62 69 67 20
        65 6E 6F 75 67 68
        20 68 75 6E 6B 2E
   0B03 00                 4055 	.db 0x00
                           4056 ;	\\gbdk\\libc\\free.c 16
                           4057 ; genLabel
                           4058 ; genFunction
                           4059 ;	---------------------------------
                           4060 ; Function free
                           4061 ; ---------------------------------
   0B04                    4062 ___free_start:
   0B04                    4063 _free:
   0B04 C5                 4064 	push	bc
   0B05 E8 FB              4065 	lda	sp,-5(sp)
                           4066 ;	\\gbdk\\libc\\free.c 21
                           4067 ; genAssign
                           4068 ; AOP_HL for _malloc_first
                           4069 ; AOP_STK for _free_thisHunk_1_1
   0B07 21 00 00           4070 	ld	hl,#_malloc_first + 0
   0B0A 2A                 4071 	ld	a,(hl+)
   0B0B 5E                 4072 	ld	e,(hl)
   0B0C F8 03              4073 	lda	hl,3(sp)
   0B0E 22                 4074 	ld	(hl+),a
   0B0F 73                 4075 	ld	(hl),e
                           4076 ;	\\gbdk\\libc\\free.c 24
                           4077 ; genAssign
                           4078 ; (operands are equal 3)
                           4079 ; genMinus
                           4080 ; AOP_STK for 
   0B10 F8 09              4081 	lda	hl,9(sp)
   0B12 5E                 4082 	ld	e,(hl)
   0B13 23                 4083 	inc	hl
   0B14 56                 4084 	ld	d,(hl)
   0B15 21 07 00           4085 	ld	hl,#0x0007
   0B18 7B                 4086 	ld	a,e
   0B19 95                 4087 	sub	a,l
   0B1A 5F                 4088 	ld	e,a
   0B1B 7A                 4089 	ld	a,d
   0B1C 9C                 4090 	sbc	a,h
   0B1D F8 0A              4091 	lda	hl,10(sp)
   0B1F 77                 4092 	ld	(hl),a
   0B20 2B                 4093 	dec	hl
   0B21 73                 4094 	ld	(hl),e
                           4095 ;	\\gbdk\\libc\\free.c 27
                           4096 ; genAssign
                           4097 ; AOP_STK for 
                           4098 ; (registers are the same)
                           4099 ; genLabel
   0B22                    4100 00106$:
                           4101 ; genIfx
                           4102 ; AOP_STK for _free_thisHunk_1_1
   0B22 F8 03              4103 	lda	hl,3(sp)
                           4104 ; Rule 8
   0B24 2A                 4105 	ld	a,(hl+)
   0B25 B6                 4106 	or	a,(hl)
   0B26 CA B9 0B           4107 	jp	z,00108$
                           4108 ; genPointerGet
                           4109 ; AOP_STK for _free_thisHunk_1_1
                           4110 ; AOP_STK for _free_sloc0_1_0
   0B29 2B                 4111 	dec	hl
   0B2A 5E                 4112 	ld	e,(hl)
   0B2B 23                 4113 	inc	hl
   0B2C 56                 4114 	ld	d,(hl)
   0B2D 1A                 4115 	ld	a,(de)
   0B2E 2B                 4116 	dec	hl
   0B2F 2B                 4117 	dec	hl
   0B30 77                 4118 	ld	(hl),a
                           4119 ; genCmpEq
                           4120 ; AOP_STK for _free_sloc0_1_0
   0B31 7E                 4121 	ld	a,(hl) ; 2
   0B32 FE 7B              4122 	cp	a,#0x7B
   0B34 C2 39 0B           4123 	jp	nz,00116$
   0B37 18 03              4124 	jr	00117$
   0B39                    4125 00116$:
   0B39 C3 B9 0B           4126 	jp	00108$
   0B3C                    4127 00117$:
                           4128 ;	\\gbdk\\libc\\free.c 29
                           4129 ; genCmpEq
                           4130 ; AOP_STK for _free_thisHunk_1_1
                           4131 ; AOP_STK for 
   0B3C F8 09              4132 	lda	hl,9(sp)
   0B3E 7E                 4133 	ld	a,(hl)
   0B3F F8 03              4134 	lda	hl,3(sp)
   0B41 BE                 4135 	cp	(hl) ; 5
   0B42 20 0A              4136 	jr	nz,00118$
   0B44 F8 0A              4137 	lda	hl,10(sp)
   0B46 7E                 4138 	ld	a,(hl)
   0B47 F8 04              4139 	lda	hl,4(sp)
   0B49 BE                 4140 	cp	(hl) ; 5
   0B4A 20 02              4141 	jr	nz,00118$
   0B4C 18 03              4142 	jr	00119$
   0B4E                    4143 00118$:
   0B4E C3 A9 0B           4144 	jp	00104$
   0B51                    4145 00119$:
                           4146 ;	\\gbdk\\libc\\free.c 30
                           4147 ; genIpush
   0B51 21 D1 0B           4148 	ld	hl,#__str_13 + 0
   0B54 E5                 4149 	push	hl
                           4150 ; genIpush
   0B55 21 CC 0B           4151 	ld	hl,#__str_12 + 0
   0B58 E5                 4152 	push	hl
                           4153 ; genCall
   0B59 CD 00 00           4154 	call	_debug
   0B5C E8 04              4155 	lda	sp,4(sp)
                           4156 ;	\\gbdk\\libc\\free.c 32
                           4157 ; genPlus
                           4158 ; AOP_STK for _free_thisHunk_1_1
                           4159 ; AOP_STK for _free_sloc1_1_0
                           4160 ; genPlusIncr
                           4161 ;	genPlusIncr failed
   0B5E F8 03              4162 	lda	hl,3(sp)
   0B60 5E                 4163 	ld	e,(hl)
   0B61 23                 4164 	inc	hl
   0B62 56                 4165 	ld	d,(hl)
   0B63 21 05 00           4166 	ld	hl,#0x0005
   0B66 19                 4167 	add	hl,de
   0B67 7D                 4168 	ld	a,l
   0B68 54                 4169 	ld	d,h
   0B69 F8 00              4170 	lda	hl,0(sp)
   0B6B 22                 4171 	ld	(hl+),a
   0B6C 72                 4172 	ld	(hl),d
                           4173 ; genPointerGet
                           4174 ; AOP_STK for _free_sloc1_1_0
   0B6D 2B                 4175 	dec	hl
   0B6E 5E                 4176 	ld	e,(hl)
   0B6F 23                 4177 	inc	hl
   0B70 56                 4178 	ld	d,(hl)
   0B71 1A                 4179 	ld	a,(de)
   0B72 4F                 4180 	ld	c,a
   0B73 13                 4181 	inc	de
   0B74 1A                 4182 	ld	a,(de)
   0B75 47                 4183 	ld	b,a
                           4184 ; genCmpEq
   0B76 79                 4185 	ld	a,c ; 2
   0B77 FE 02              4186 	cp	a,#0x02
   0B79 C2 83 0B           4187 	jp	nz,00120$
   0B7C 78                 4188 	ld	a,b ; 2
                           4189 ; Rule 3
   0B7D B7                 4190 	or	a,a
   0B7E C2 83 0B           4191 	jp	nz,00120$
   0B81 18 03              4192 	jr	00121$
   0B83                    4193 00120$:
   0B83 C3 97 0B           4194 	jp	00102$
   0B86                    4195 00121$:
                           4196 ;	\\gbdk\\libc\\free.c 33
                           4197 ; genAssign (pointer)
                           4198 ; AOP_STK for _free_sloc1_1_0
   0B86 F8 00              4199 	lda	hl,0(sp)
   0B88 5E                 4200 	ld	e,(hl)
   0B89 23                 4201 	inc	hl
   0B8A 56                 4202 	ld	d,(hl)
   0B8B 3E 01              4203 	ld	a,#0x01
   0B8D 12                 4204 	ld	(de),a
   0B8E 13                 4205 	inc	de
   0B8F 3E 00              4206 	ld	a,#0x00
   0B91 12                 4207 	ld	(de),a
                           4208 ;	\\gbdk\\libc\\free.c 34
                           4209 ; genRet
   0B92 1E 00              4210 	ld	e,#0x00
   0B94 C3 C8 0B           4211 	jp	00109$
                           4212 ; genLabel
   0B97                    4213 00102$:
                           4214 ;	\\gbdk\\libc\\free.c 36
                           4215 ; genIpush
   0B97 21 E1 0B           4216 	ld	hl,#__str_15 + 0
   0B9A E5                 4217 	push	hl
                           4218 ; genIpush
   0B9B 21 DC 0B           4219 	ld	hl,#__str_14 + 0
   0B9E E5                 4220 	push	hl
                           4221 ; genCall
   0B9F CD 00 00           4222 	call	_debug
   0BA2 E8 04              4223 	lda	sp,4(sp)
                           4224 ;	\\gbdk\\libc\\free.c 37
                           4225 ; genRet
   0BA4 1E FF              4226 	ld	e,#0xFF
   0BA6 C3 C8 0B           4227 	jp	00109$
                           4228 ; genLabel
   0BA9                    4229 00104$:
                           4230 ;	\\gbdk\\libc\\free.c 40
                           4231 ; genPlus
                           4232 ; AOP_STK for _free_thisHunk_1_1
                           4233 ; genPlusIncr
   0BA9 F8 03              4234 	lda	hl,3(sp)
   0BAB 5E                 4235 	ld	e,(hl)
   0BAC 23                 4236 	inc	hl
   0BAD 56                 4237 	ld	d,(hl)
   0BAE 13                 4238 	inc	de
                           4239 ; genPointerGet
                           4240 ; AOP_STK for _free_thisHunk_1_1
                           4241 ; Removed redundent load
                           4242 ; Removed redundent load
   0BAF 1A                 4243 	ld	a,(de)
   0BB0 2B                 4244 	dec	hl
   0BB1 77                 4245 	ld	(hl),a
   0BB2 13                 4246 	inc	de
   0BB3 1A                 4247 	ld	a,(de)
   0BB4 23                 4248 	inc	hl
   0BB5 77                 4249 	ld	(hl),a
                           4250 ; genGoto
   0BB6 C3 22 0B           4251 	jp	00106$
                           4252 ; genLabel
   0BB9                    4253 00108$:
                           4254 ;	\\gbdk\\libc\\free.c 43
                           4255 ; genIpush
   0BB9 21 02 0C           4256 	ld	hl,#__str_17 + 0
   0BBC E5                 4257 	push	hl
                           4258 ; genIpush
   0BBD 21 FD 0B           4259 	ld	hl,#__str_16 + 0
   0BC0 E5                 4260 	push	hl
                           4261 ; genCall
   0BC1 CD 00 00           4262 	call	_debug
   0BC4 E8 04              4263 	lda	sp,4(sp)
                           4264 ;	\\gbdk\\libc\\free.c 44
                           4265 ; genRet
   0BC6 1E FE              4266 	ld	e,#0xFE
                           4267 ; genLabel
   0BC8                    4268 00109$:
                           4269 ; genEndFunction
   0BC8 E8 05              4270 	lda	sp,5(sp)
   0BCA C1                 4271 	pop	bc
   0BCB C9                 4272 	ret
   0BCC                    4273 ___free_end:
   0BCC                    4274 __str_12:
   0BCC 66 72 65 65        4275 	.ascii "free"
   0BD0 00                 4276 	.db 0x00
   0BD1                    4277 __str_13:
   0BD1 46 6F 75 6E 64 20  4278 	.ascii "Found hunk"
        68 75 6E 6B
   0BDB 00                 4279 	.db 0x00
   0BDC                    4280 __str_14:
   0BDC 66 72 65 65        4281 	.ascii "free"
   0BE0 00                 4282 	.db 0x00
   0BE1                    4283 __str_15:
   0BE1 41 74 74 65 6D 70  4284 	.ascii "Attempt to free a free hunk"
        74 20 74 6F 20 66
        72 65 65 20 61 20
        66 72 65 65 20 68
        75 6E 6B
   0BFC 00                 4285 	.db 0x00
   0BFD                    4286 __str_16:
   0BFD 66 72 65 65        4287 	.ascii "free"
   0C01 00                 4288 	.db 0x00
   0C02                    4289 __str_17:
   0C02 4E 6F 20 68 75 6E  4290 	.ascii "No hunk found"
        6B 20 66 6F 75 6E
        64
   0C0F 00                 4291 	.db 0x00
                           4292 ;	src\\functions.c 70
                           4293 ; genLabel
                           4294 ; genFunction
                           4295 ;	---------------------------------
                           4296 ; Function strcmp
                           4297 ; ---------------------------------
   0C10                    4298 ___strcmp_start:
   0C10                    4299 _strcmp:
   0C10 C5                 4300 	push	bc
   0C11 E8 FA              4301 	lda	sp,-6(sp)
                           4302 ;	src\\functions.c 73
                           4303 ; genLabel
   0C13                    4304 00102$:
                           4305 ; genAssign
                           4306 ; AOP_STK for 
                           4307 ; AOP_STK for _strcmp_sloc1_1_0
   0C13 F8 0A              4308 	lda	hl,10(sp)
   0C15 2A                 4309 	ld	a,(hl+)
   0C16 5E                 4310 	ld	e,(hl)
   0C17 F8 03              4311 	lda	hl,3(sp)
   0C19 22                 4312 	ld	(hl+),a
   0C1A 73                 4313 	ld	(hl),e
                           4314 ; genPointerGet
                           4315 ; AOP_STK for _strcmp_sloc1_1_0
                           4316 ; AOP_STK for _strcmp_sloc0_1_0
   0C1B 2B                 4317 	dec	hl
   0C1C 5E                 4318 	ld	e,(hl)
   0C1D 23                 4319 	inc	hl
   0C1E 56                 4320 	ld	d,(hl)
   0C1F 1A                 4321 	ld	a,(de)
   0C20 23                 4322 	inc	hl
   0C21 77                 4323 	ld	(hl),a
                           4324 ; genAssign
                           4325 ; AOP_STK for 
                           4326 ; AOP_STK for _strcmp_sloc3_1_0
   0C22 F8 0C              4327 	lda	hl,12(sp)
   0C24 2A                 4328 	ld	a,(hl+)
   0C25 5E                 4329 	ld	e,(hl)
   0C26 F8 00              4330 	lda	hl,0(sp)
   0C28 22                 4331 	ld	(hl+),a
   0C29 73                 4332 	ld	(hl),e
                           4333 ; genPointerGet
                           4334 ; AOP_STK for _strcmp_sloc3_1_0
                           4335 ; AOP_STK for _strcmp_sloc2_1_0
   0C2A 2B                 4336 	dec	hl
   0C2B 5E                 4337 	ld	e,(hl)
   0C2C 23                 4338 	inc	hl
   0C2D 56                 4339 	ld	d,(hl)
   0C2E 1A                 4340 	ld	a,(de)
   0C2F 23                 4341 	inc	hl
   0C30 77                 4342 	ld	(hl),a
                           4343 ; genMinus
                           4344 ; AOP_STK for _strcmp_sloc0_1_0
                           4345 ; AOP_STK for _strcmp_sloc2_1_0
   0C31 F8 05              4346 	lda	hl,5(sp)
   0C33 7E                 4347 	ld	a,(hl)
   0C34 F8 02              4348 	lda	hl,2(sp)
   0C36 96                 4349 	sub	a,(hl)
   0C37 4F                 4350 	ld	c,a
                           4351 ; genAssign
   0C38 41                 4352 	ld	b,c
                           4353 ; genIfx
                           4354 ; Removed redundent or a,a
   0C39 AF                 4355 	xor	a,a
   0C3A B1                 4356 	or	a,c
   0C3B C2 63 0C           4357 	jp	nz,00104$
                           4358 ; genIfx
                           4359 ; AOP_STK for _strcmp_sloc2_1_0
                           4360 ; Removed redundent or a,a
   0C3E AF                 4361 	xor	a,a
   0C3F B6                 4362 	or	a,(hl)
   0C40 CA 63 0C           4363 	jp	z,00104$
                           4364 ;	src\\functions.c 74
                           4365 ; genPlus
                           4366 ; AOP_STK for _strcmp_sloc1_1_0
                           4367 ; AOP_STK for 
                           4368 ; genPlusIncr
                           4369 ;	genPlusIncr failed
   0C43 23                 4370 	inc	hl
   0C44 5E                 4371 	ld	e,(hl)
   0C45 23                 4372 	inc	hl
   0C46 56                 4373 	ld	d,(hl)
   0C47 21 01 00           4374 	ld	hl,#0x0001
   0C4A 19                 4375 	add	hl,de
   0C4B 7D                 4376 	ld	a,l
   0C4C 54                 4377 	ld	d,h
   0C4D F8 0A              4378 	lda	hl,10(sp)
   0C4F 22                 4379 	ld	(hl+),a
   0C50 72                 4380 	ld	(hl),d
                           4381 ; genPlus
                           4382 ; AOP_STK for _strcmp_sloc3_1_0
                           4383 ; AOP_STK for 
                           4384 ; genPlusIncr
                           4385 ;	genPlusIncr failed
   0C51 F8 00              4386 	lda	hl,0(sp)
   0C53 5E                 4387 	ld	e,(hl)
   0C54 23                 4388 	inc	hl
   0C55 56                 4389 	ld	d,(hl)
   0C56 21 01 00           4390 	ld	hl,#0x0001
   0C59 19                 4391 	add	hl,de
   0C5A 7D                 4392 	ld	a,l
   0C5B 54                 4393 	ld	d,h
   0C5C F8 0C              4394 	lda	hl,12(sp)
   0C5E 22                 4395 	ld	(hl+),a
   0C5F 72                 4396 	ld	(hl),d
                           4397 ; genGoto
   0C60 C3 13 0C           4398 	jp	00102$
                           4399 ; genLabel
   0C63                    4400 00104$:
                           4401 ;	src\\functions.c 76
                           4402 ; genCmpLt
   0C63 78                 4403 	ld	a,b
   0C64 EE 80              4404 	xor	a,#0x80
   0C66 FE 80              4405 	cp	#0x00^0x80
   0C68 D2 71 0C           4406 	jp	nc,00108$
                           4407 ;	src\\functions.c 77
                           4408 ; genRet
   0C6B 11 FF FF           4409 	ld	de,#0xFFFFFFFF
   0C6E C3 85 0C           4410 	jp	00110$
                           4411 ; genLabel
   0C71                    4412 00108$:
                           4413 ;	src\\functions.c 78
                           4414 ; genCmpGt
   0C71 1E 80              4415 	ld	e,#0x80
   0C73 78                 4416 	ld	a,b
   0C74 EE 80              4417 	xor	a,#0x80
   0C76 57                 4418 	ld	d,a
   0C77 7B                 4419 	ld	a,e
   0C78 9A                 4420 	sbc	a,d
   0C79 D2 82 0C           4421 	jp	nc,00109$
                           4422 ;	src\\functions.c 79
                           4423 ; genRet
   0C7C 11 01 00           4424 	ld	de,#0x0001
   0C7F C3 85 0C           4425 	jp	00110$
                           4426 ; genLabel
   0C82                    4427 00109$:
                           4428 ;	src\\functions.c 80
                           4429 ; genRet
   0C82 11 00 00           4430 	ld	de,#0x0000
                           4431 ; genLabel
   0C85                    4432 00110$:
                           4433 ; genEndFunction
   0C85 E8 06              4434 	lda	sp,6(sp)
   0C87 C1                 4435 	pop	bc
   0C88 C9                 4436 	ret
   0C89                    4437 ___strcmp_end:
   0C89                    4438 _sizelistepnj:
   0C89 03                 4439 	.db #0x03
                           4440 ;	src\\functions.c 83
                           4441 ; genLabel
                           4442 ; genFunction
                           4443 ;	---------------------------------
                           4444 ; Function can_player_move
                           4445 ; ---------------------------------
   0C8A                    4446 ___can_player_move_start:
   0C8A                    4447 _can_player_move:
   0C8A C5                 4448 	push	bc
   0C8B E8 F6              4449 	lda	sp,-10(sp)
                           4450 ;	src\\functions.c 86
                           4451 ; genAssign
                           4452 ; AOP_STK for _can_player_move_result_1_1
   0C8D F8 03              4453 	lda	hl,3(sp)
   0C8F 36 01              4454 	ld	(hl),#0x01
                           4455 ;	src\\functions.c 88
                           4456 ; genMinus
                           4457 ; AOP_STK for 
   0C91 F8 0E              4458 	lda	hl,14(sp)
   0C93 7E                 4459 	ld	a,(hl)
   0C94 C6 F8              4460 	add	a,#0xF8
   0C96 47                 4461 	ld	b,a
                           4462 ; genRightShift
                           4463 ; shift right 	result 1, left 1
                           4464 ; Removed redundent load
   0C97 CB 38              4465 	srl	b
   0C99 CB 38              4466 	srl	b
   0C9B CB 38              4467 	srl	b
                           4468 ; genCast
                           4469 ; AOP_STK for _can_player_move_indexTLx_1_1
   0C9D F8 08              4470 	lda	hl,8(sp)
   0C9F 70                 4471 	ld	(hl),b
   0CA0 23                 4472 	inc	hl
   0CA1 36 00              4473 	ld	(hl),#0x00
                           4474 ;	src\\functions.c 89
                           4475 ; genMinus
                           4476 ; AOP_STK for 
   0CA3 F8 0F              4477 	lda	hl,15(sp)
   0CA5 7E                 4478 	ld	a,(hl)
   0CA6 C6 F0              4479 	add	a,#0xF0
   0CA8 4F                 4480 	ld	c,a
                           4481 ; genRightShift
                           4482 ; shift right 	result 1, left 1
                           4483 ; Removed redundent load
   0CA9 CB 39              4484 	srl	c
   0CAB CB 39              4485 	srl	c
   0CAD CB 39              4486 	srl	c
                           4487 ; genCast
                           4488 ; AOP_STK for _can_player_move_indexTLy_1_1
   0CAF F8 06              4489 	lda	hl,6(sp)
   0CB1 71                 4490 	ld	(hl),c
   0CB2 23                 4491 	inc	hl
   0CB3 36 00              4492 	ld	(hl),#0x00
                           4493 ;	src\\functions.c 90
                           4494 ; genIpush
   0CB5 21 14 00           4495 	ld	hl,#0x0014
   0CB8 E5                 4496 	push	hl
                           4497 ; genIpush
                           4498 ; AOP_STK for _can_player_move_indexTLy_1_1
   0CB9 F8 08              4499 	lda	hl,8(sp)
   0CBB 2A                 4500 	ld	a,(hl+)
   0CBC 66                 4501 	ld	h,(hl)
   0CBD 6F                 4502 	ld	l,a
   0CBE E5                 4503 	push	hl
                           4504 ; genCall
   0CBF CD 00 00           4505 	call	__muluint
   0CC2 42                 4506 	ld	b,d
   0CC3 4B                 4507 	ld	c,e
   0CC4 E8 04              4508 	lda	sp,4(sp)
                           4509 ; genPlus
                           4510 ; AOP_STK for _can_player_move_indexTLx_1_1
                           4511 ; AOP_STK for _can_player_move_tileindexTL_1_1
                           4512 ;	genPlusIncr failed
   0CC6 F8 08              4513 	lda	hl,8(sp)
   0CC8 2A                 4514 	ld	a,(hl+)
   0CC9 66                 4515 	ld	h,(hl)
   0CCA 6F                 4516 	ld	l,a
   0CCB 09                 4517 	add	hl,bc
   0CCC 7D                 4518 	ld	a,l
   0CCD 54                 4519 	ld	d,h
   0CCE F8 04              4520 	lda	hl,4(sp)
   0CD0 22                 4521 	ld	(hl+),a
   0CD1 72                 4522 	ld	(hl),d
                           4523 ;	src\\functions.c 92
                           4524 ; genCmpLt
                           4525 ; AOP_STK for _can_player_move_indexTLy_1_1
   0CD2 23                 4526 	inc	hl
   0CD3 5E                 4527 	ld	e,(hl)
   0CD4 23                 4528 	inc	hl
   0CD5 56                 4529 	ld	d,(hl)
   0CD6 21 EE FF           4530 	ld	hl,#0xFFEE
   0CD9 19                 4531 	add	hl,de
   0CDA DA D6 0D           4532 	jp	c,00116$
                           4533 ; genCmpLt
                           4534 ; AOP_STK for _can_player_move_indexTLx_1_1
   0CDD F8 08              4535 	lda	hl,8(sp)
   0CDF 5E                 4536 	ld	e,(hl)
   0CE0 23                 4537 	inc	hl
   0CE1 56                 4538 	ld	d,(hl)
   0CE2 21 EC FF           4539 	ld	hl,#0xFFEC
   0CE5 19                 4540 	add	hl,de
   0CE6 DA D6 0D           4541 	jp	c,00116$
                           4542 ;	src\\functions.c 93
                           4543 ; genPlus
                           4544 ; genPlusIncr
   0CE9 11 52 00           4545 	ld	de,#_listezone + 0 + 2
                           4546 ; genPointerGet
   0CEC 1A                 4547 	ld	a,(de)
   0CED 4F                 4548 	ld	c,a
                           4549 ; genIfx
                           4550 ; Removed redundent or a,a
   0CEE AF                 4551 	xor	a,a
   0CEF B1                 4552 	or	a,c
   0CF0 CA 19 0D           4553 	jp	z,00113$
                           4554 ;	src\\functions.c 94
                           4555 ; genPlus
                           4556 ; AOP_STK for _can_player_move_tileindexTL_1_1
                           4557 ;	genPlusIncr failed
   0CF3 11 51 03           4558 	ld	de,#_ground + 0
   0CF6 F8 04              4559 	lda	hl,4(sp)
   0CF8 2A                 4560 	ld	a,(hl+)
   0CF9 66                 4561 	ld	h,(hl)
   0CFA 6F                 4562 	ld	l,a
   0CFB 19                 4563 	add	hl,de
   0CFC 5D                 4564 	ld	e,l
   0CFD 54                 4565 	ld	d,h
                           4566 ; genPointerGet
   0CFE 1A                 4567 	ld	a,(de)
   0CFF 4F                 4568 	ld	c,a
                           4569 ; genCmpEq
   0D00 79                 4570 	ld	a,c ; 2
   0D01 FE 2C              4571 	cp	a,#0x2C
   0D03 C2 0A 0D           4572 	jp	nz,00141$
   0D06 3E 01              4573 	ld	a,#0x01
   0D08 18 01              4574 	jr	00142$
   0D0A                    4575 00141$:
   0D0A AF                 4576 	xor	a,a
   0D0B                    4577 00142$:
   0D0B 4F                 4578 	ld	c,a
                           4579 ; genNot
                           4580 ; AOP_STK for _can_player_move_result_1_1
   0D0C AF                 4581 	xor	a,a
   0D0D B1                 4582 	or	a,c
   0D0E D6 01              4583 	sub	a,#0x01
   0D10 3E 00              4584 	ld	a,#0x00
   0D12 17                 4585 	rla
   0D13 F8 03              4586 	lda	hl,3(sp)
   0D15 77                 4587 	ld	(hl),a
                           4588 ; genGoto
   0D16 C3 D6 0D           4589 	jp	00116$
                           4590 ; genLabel
   0D19                    4591 00113$:
                           4592 ;	src\\functions.c 96
                           4593 ; genPlus
                           4594 ; genPlusIncr
   0D19 11 67 00           4595 	ld	de,#_listezone + 0 + 23
                           4596 ; genPointerGet
   0D1C 1A                 4597 	ld	a,(de)
   0D1D 4F                 4598 	ld	c,a
                           4599 ; genIfx
                           4600 ; Removed redundent or a,a
   0D1E AF                 4601 	xor	a,a
   0D1F B1                 4602 	or	a,c
   0D20 CA 49 0D           4603 	jp	z,00110$
                           4604 ;	src\\functions.c 97
                           4605 ; genPlus
                           4606 ; AOP_STK for _can_player_move_tileindexTL_1_1
                           4607 ;	genPlusIncr failed
   0D23 11 B9 04           4608 	ld	de,#_ground2 + 0
   0D26 F8 04              4609 	lda	hl,4(sp)
   0D28 2A                 4610 	ld	a,(hl+)
   0D29 66                 4611 	ld	h,(hl)
   0D2A 6F                 4612 	ld	l,a
   0D2B 19                 4613 	add	hl,de
   0D2C 5D                 4614 	ld	e,l
   0D2D 54                 4615 	ld	d,h
                           4616 ; genPointerGet
   0D2E 1A                 4617 	ld	a,(de)
   0D2F 4F                 4618 	ld	c,a
                           4619 ; genCmpEq
   0D30 79                 4620 	ld	a,c ; 2
   0D31 FE 2C              4621 	cp	a,#0x2C
   0D33 C2 3A 0D           4622 	jp	nz,00143$
   0D36 3E 01              4623 	ld	a,#0x01
   0D38 18 01              4624 	jr	00144$
   0D3A                    4625 00143$:
   0D3A AF                 4626 	xor	a,a
   0D3B                    4627 00144$:
   0D3B 4F                 4628 	ld	c,a
                           4629 ; genNot
                           4630 ; AOP_STK for _can_player_move_result_1_1
   0D3C AF                 4631 	xor	a,a
   0D3D B1                 4632 	or	a,c
   0D3E D6 01              4633 	sub	a,#0x01
   0D40 3E 00              4634 	ld	a,#0x00
   0D42 17                 4635 	rla
   0D43 F8 03              4636 	lda	hl,3(sp)
   0D45 77                 4637 	ld	(hl),a
                           4638 ; genGoto
   0D46 C3 D6 0D           4639 	jp	00116$
                           4640 ; genLabel
   0D49                    4641 00110$:
                           4642 ;	src\\functions.c 99
                           4643 ; genPlus
                           4644 ; genPlusIncr
   0D49 11 6E 00           4645 	ld	de,#_listezone + 0 + 30
                           4646 ; genPointerGet
   0D4C 1A                 4647 	ld	a,(de)
   0D4D 4F                 4648 	ld	c,a
                           4649 ; genIfx
                           4650 ; Removed redundent or a,a
   0D4E AF                 4651 	xor	a,a
   0D4F B1                 4652 	or	a,c
   0D50 CA 79 0D           4653 	jp	z,00107$
                           4654 ;	src\\functions.c 100
                           4655 ; genPlus
                           4656 ; AOP_STK for _can_player_move_tileindexTL_1_1
                           4657 ;	genPlusIncr failed
   0D53 11 21 06           4658 	ld	de,#_ground3 + 0
   0D56 F8 04              4659 	lda	hl,4(sp)
   0D58 2A                 4660 	ld	a,(hl+)
   0D59 66                 4661 	ld	h,(hl)
   0D5A 6F                 4662 	ld	l,a
   0D5B 19                 4663 	add	hl,de
   0D5C 5D                 4664 	ld	e,l
   0D5D 54                 4665 	ld	d,h
                           4666 ; genPointerGet
   0D5E 1A                 4667 	ld	a,(de)
   0D5F 4F                 4668 	ld	c,a
                           4669 ; genCmpEq
   0D60 79                 4670 	ld	a,c ; 2
   0D61 FE 2C              4671 	cp	a,#0x2C
   0D63 C2 6A 0D           4672 	jp	nz,00145$
   0D66 3E 01              4673 	ld	a,#0x01
   0D68 18 01              4674 	jr	00146$
   0D6A                    4675 00145$:
   0D6A AF                 4676 	xor	a,a
   0D6B                    4677 00146$:
   0D6B 4F                 4678 	ld	c,a
                           4679 ; genNot
                           4680 ; AOP_STK for _can_player_move_result_1_1
   0D6C AF                 4681 	xor	a,a
   0D6D B1                 4682 	or	a,c
   0D6E D6 01              4683 	sub	a,#0x01
   0D70 3E 00              4684 	ld	a,#0x00
   0D72 17                 4685 	rla
   0D73 F8 03              4686 	lda	hl,3(sp)
   0D75 77                 4687 	ld	(hl),a
                           4688 ; genGoto
   0D76 C3 D6 0D           4689 	jp	00116$
                           4690 ; genLabel
   0D79                    4691 00107$:
                           4692 ;	src\\functions.c 102
                           4693 ; genPlus
                           4694 ; genPlusIncr
   0D79 11 59 00           4695 	ld	de,#_listezone + 0 + 9
                           4696 ; genPointerGet
   0D7C 1A                 4697 	ld	a,(de)
   0D7D 4F                 4698 	ld	c,a
                           4699 ; genIfx
                           4700 ; Removed redundent or a,a
   0D7E AF                 4701 	xor	a,a
   0D7F B1                 4702 	or	a,c
   0D80 CA A9 0D           4703 	jp	z,00104$
                           4704 ;	src\\functions.c 103
                           4705 ; genPlus
                           4706 ; AOP_STK for _can_player_move_tileindexTL_1_1
                           4707 ;	genPlusIncr failed
   0D83 11 81 00           4708 	ld	de,#_room + 0
   0D86 F8 04              4709 	lda	hl,4(sp)
   0D88 2A                 4710 	ld	a,(hl+)
   0D89 66                 4711 	ld	h,(hl)
   0D8A 6F                 4712 	ld	l,a
   0D8B 19                 4713 	add	hl,de
   0D8C 5D                 4714 	ld	e,l
   0D8D 54                 4715 	ld	d,h
                           4716 ; genPointerGet
   0D8E 1A                 4717 	ld	a,(de)
   0D8F 4F                 4718 	ld	c,a
                           4719 ; genCmpEq
   0D90 79                 4720 	ld	a,c ; 2
   0D91 FE 2A              4721 	cp	a,#0x2A
   0D93 C2 9A 0D           4722 	jp	nz,00147$
   0D96 3E 01              4723 	ld	a,#0x01
   0D98 18 01              4724 	jr	00148$
   0D9A                    4725 00147$:
   0D9A AF                 4726 	xor	a,a
   0D9B                    4727 00148$:
   0D9B 4F                 4728 	ld	c,a
                           4729 ; genNot
                           4730 ; AOP_STK for _can_player_move_result_1_1
   0D9C AF                 4731 	xor	a,a
   0D9D B1                 4732 	or	a,c
   0D9E D6 01              4733 	sub	a,#0x01
   0DA0 3E 00              4734 	ld	a,#0x00
   0DA2 17                 4735 	rla
   0DA3 F8 03              4736 	lda	hl,3(sp)
   0DA5 77                 4737 	ld	(hl),a
                           4738 ; genGoto
   0DA6 C3 D6 0D           4739 	jp	00116$
                           4740 ; genLabel
   0DA9                    4741 00104$:
                           4742 ;	src\\functions.c 105
                           4743 ; genPlus
                           4744 ; genPlusIncr
   0DA9 11 60 00           4745 	ld	de,#_listezone + 0 + 16
                           4746 ; genPointerGet
   0DAC 1A                 4747 	ld	a,(de)
   0DAD 4F                 4748 	ld	c,a
                           4749 ; genIfx
                           4750 ; Removed redundent or a,a
   0DAE AF                 4751 	xor	a,a
   0DAF B1                 4752 	or	a,c
   0DB0 CA D6 0D           4753 	jp	z,00116$
                           4754 ;	src\\functions.c 106
                           4755 ; genPlus
                           4756 ; AOP_STK for _can_player_move_tileindexTL_1_1
                           4757 ;	genPlusIncr failed
   0DB3 11 E9 01           4758 	ld	de,#_room2 + 0
   0DB6 F8 04              4759 	lda	hl,4(sp)
   0DB8 2A                 4760 	ld	a,(hl+)
   0DB9 66                 4761 	ld	h,(hl)
   0DBA 6F                 4762 	ld	l,a
   0DBB 19                 4763 	add	hl,de
   0DBC 5D                 4764 	ld	e,l
   0DBD 54                 4765 	ld	d,h
                           4766 ; genPointerGet
   0DBE 1A                 4767 	ld	a,(de)
   0DBF 4F                 4768 	ld	c,a
                           4769 ; genCmpEq
   0DC0 79                 4770 	ld	a,c ; 2
   0DC1 FE 2A              4771 	cp	a,#0x2A
   0DC3 C2 CA 0D           4772 	jp	nz,00149$
   0DC6 3E 01              4773 	ld	a,#0x01
   0DC8 18 01              4774 	jr	00150$
   0DCA                    4775 00149$:
   0DCA AF                 4776 	xor	a,a
   0DCB                    4777 00150$:
   0DCB 4F                 4778 	ld	c,a
                           4779 ; genNot
                           4780 ; AOP_STK for _can_player_move_result_1_1
   0DCC AF                 4781 	xor	a,a
   0DCD B1                 4782 	or	a,c
   0DCE D6 01              4783 	sub	a,#0x01
   0DD0 3E 00              4784 	ld	a,#0x00
   0DD2 17                 4785 	rla
   0DD3 F8 03              4786 	lda	hl,3(sp)
   0DD5 77                 4787 	ld	(hl),a
                           4788 ; genLabel
   0DD6                    4789 00116$:
                           4790 ;	src\\functions.c 110
                           4791 ; genAssign
                           4792 ; AOP_STK for _can_player_move_iter_1_1
   0DD6 F8 02              4793 	lda	hl,2(sp)
   0DD8 36 00              4794 	ld	(hl),#0x00
                           4795 ; genLabel
   0DDA                    4796 00123$:
                           4797 ; genAssign
                           4798 ; AOP_HL for _sizelistepnj
   0DDA 21 89 0C           4799 	ld	hl,#_sizelistepnj + 0
   0DDD 46                 4800 	ld	b,(hl)
                           4801 ; genCmpLt
                           4802 ; AOP_STK for _can_player_move_iter_1_1
   0DDE AF                 4803 	xor	a,a
   0DDF F8 02              4804 	lda	hl,2(sp)
   0DE1 7E                 4805 	ld	a,(hl)
   0DE2 98                 4806 	sbc	a,b ; 2
   0DE3 D2 4C 0E           4807 	jp	nc,00126$
                           4808 ;	src\\functions.c 111
                           4809 ; genLeftShift
                           4810 ; AOP_STK for _can_player_move_iter_1_1
   0DE6 7E                 4811 	ld	a,(hl)
   0DE7 CB 17              4812 	rl	a
   0DE9 CB 17              4813 	rl	a
   0DEB CB 17              4814 	rl	a
   0DED CB 17              4815 	rl	a
   0DEF E6 F0              4816 	and	a,#0xF0
   0DF1 47                 4817 	ld	b,a
                           4818 ; genPlus
                           4819 ; AOP_STK for _can_player_move_sloc0_1_0
                           4820 ;	genPlusIncr failed
   0DF2 11 20 00           4821 	ld	de,#_listepnj + 0
   0DF5 68                 4822 	ld	l,b
   0DF6 26 00              4823 	ld	h,#0x00
   0DF8 19                 4824 	add	hl,de
   0DF9 7D                 4825 	ld	a,l
   0DFA 54                 4826 	ld	d,h
   0DFB F8 00              4827 	lda	hl,0(sp)
   0DFD 22                 4828 	ld	(hl+),a
   0DFE 72                 4829 	ld	(hl),d
                           4830 ; genPlus
                           4831 ; AOP_STK for _can_player_move_sloc0_1_0
                           4832 ; genPlusIncr
                           4833 ;	genPlusIncr failed
   0DFF 2B                 4834 	dec	hl
   0E00 5E                 4835 	ld	e,(hl)
   0E01 23                 4836 	inc	hl
   0E02 56                 4837 	ld	d,(hl)
   0E03 21 06 00           4838 	ld	hl,#0x0006
   0E06 19                 4839 	add	hl,de
   0E07 5D                 4840 	ld	e,l
   0E08 54                 4841 	ld	d,h
                           4842 ; genPointerGet
   0E09 1A                 4843 	ld	a,(de)
   0E0A 4F                 4844 	ld	c,a
                           4845 ; genCmpEq
   0E0B 79                 4846 	ld	a,c ; 2
   0E0C FE 01              4847 	cp	a,#0x01
   0E0E C2 13 0E           4848 	jp	nz,00151$
   0E11 18 03              4849 	jr	00152$
   0E13                    4850 00151$:
   0E13 C3 46 0E           4851 	jp	00125$
   0E16                    4852 00152$:
                           4853 ;	src\\functions.c 112
                           4854 ; genPlus
                           4855 ; AOP_STK for _can_player_move_sloc0_1_0
                           4856 ; genPlusIncr
                           4857 ;	genPlusIncr failed
   0E16 F8 00              4858 	lda	hl,0(sp)
   0E18 5E                 4859 	ld	e,(hl)
   0E19 23                 4860 	inc	hl
   0E1A 56                 4861 	ld	d,(hl)
   0E1B 21 04 00           4862 	ld	hl,#0x0004
   0E1E 19                 4863 	add	hl,de
   0E1F 5D                 4864 	ld	e,l
   0E20 54                 4865 	ld	d,h
                           4866 ; genPointerGet
   0E21 1A                 4867 	ld	a,(de)
                           4868 ; genCmpEq
                           4869 ; AOP_STK for 
   0E22 F8 0E              4870 	lda	hl,14(sp)
   0E24 BE                 4871 	cp	(hl) ; 5
   0E25 20 02              4872 	jr	nz,00153$
   0E27 18 03              4873 	jr	00154$
   0E29                    4874 00153$:
   0E29 C3 46 0E           4875 	jp	00125$
   0E2C                    4876 00154$:
                           4877 ; genPlus
                           4878 ; AOP_STK for _can_player_move_sloc0_1_0
                           4879 ; genPlusIncr
                           4880 ;	genPlusIncr failed
   0E2C F8 00              4881 	lda	hl,0(sp)
   0E2E 5E                 4882 	ld	e,(hl)
   0E2F 23                 4883 	inc	hl
   0E30 56                 4884 	ld	d,(hl)
   0E31 21 05 00           4885 	ld	hl,#0x0005
   0E34 19                 4886 	add	hl,de
   0E35 5D                 4887 	ld	e,l
   0E36 54                 4888 	ld	d,h
                           4889 ; genPointerGet
   0E37 1A                 4890 	ld	a,(de)
                           4891 ; genCmpEq
                           4892 ; AOP_STK for 
   0E38 F8 0F              4893 	lda	hl,15(sp)
   0E3A BE                 4894 	cp	(hl) ; 5
   0E3B 20 02              4895 	jr	nz,00155$
   0E3D 18 03              4896 	jr	00156$
   0E3F                    4897 00155$:
   0E3F C3 46 0E           4898 	jp	00125$
   0E42                    4899 00156$:
                           4900 ; genAssign
                           4901 ; AOP_STK for _can_player_move_result_1_1
   0E42 F8 03              4902 	lda	hl,3(sp)
   0E44 36 00              4903 	ld	(hl),#0x00
                           4904 ; genLabel
   0E46                    4905 00125$:
                           4906 ;	src\\functions.c 110
                           4907 ; genPlus
                           4908 ; AOP_STK for _can_player_move_iter_1_1
                           4909 ; genPlusIncr
   0E46 F8 02              4910 	lda	hl,2(sp)
   0E48 34                 4911 	inc	(hl)
                           4912 ; genGoto
   0E49 C3 DA 0D           4913 	jp	00123$
                           4914 ; genLabel
   0E4C                    4915 00126$:
                           4916 ;	src\\functions.c 116
                           4917 ; genRet
                           4918 ; AOP_STK for _can_player_move_result_1_1
   0E4C F8 03              4919 	lda	hl,3(sp)
   0E4E 5E                 4920 	ld	e,(hl)
                           4921 ; genLabel
   0E4F                    4922 00127$:
                           4923 ; genEndFunction
   0E4F E8 0A              4924 	lda	sp,10(sp)
   0E51 C1                 4925 	pop	bc
   0E52 C9                 4926 	ret
   0E53                    4927 ___can_player_move_end:
                           4928 ;	src\\functions.c 119
                           4929 ; genLabel
                           4930 ; genFunction
                           4931 ;	---------------------------------
                           4932 ; Function proximity
                           4933 ; ---------------------------------
   0E53                    4934 ___proximity_start:
   0E53                    4935 _proximity:
   0E53 C5                 4936 	push	bc
   0E54 E8 F8              4937 	lda	sp,-8(sp)
                           4938 ;	src\\functions.c 122
                           4939 ; genAssign
                           4940 ; AOP_STK for _proximity_iter_1_1
   0E56 F8 07              4941 	lda	hl,7(sp)
   0E58 36 00              4942 	ld	(hl),#0x00
                           4943 ; genLabel
   0E5A                    4944 00113$:
                           4945 ; genCmpLt
                           4946 ; AOP_STK for _proximity_iter_1_1
   0E5A F8 07              4947 	lda	hl,7(sp)
   0E5C 7E                 4948 	ld	a,(hl)
   0E5D FE 03              4949 	cp	#0x03
   0E5F D2 DF 0F           4950 	jp	nc,00116$
                           4951 ;	src\\functions.c 123
                           4952 ; genLeftShift
                           4953 ; AOP_STK for _proximity_iter_1_1
   0E62 7E                 4954 	ld	a,(hl)
   0E63 CB 17              4955 	rl	a
   0E65 CB 17              4956 	rl	a
   0E67 CB 17              4957 	rl	a
   0E69 CB 17              4958 	rl	a
   0E6B E6 F0              4959 	and	a,#0xF0
   0E6D 47                 4960 	ld	b,a
                           4961 ; genPlus
                           4962 ; AOP_STK for _proximity_sloc0_1_0
                           4963 ;	genPlusIncr failed
   0E6E 11 20 00           4964 	ld	de,#_listepnj + 0
   0E71 68                 4965 	ld	l,b
   0E72 26 00              4966 	ld	h,#0x00
   0E74 19                 4967 	add	hl,de
   0E75 7D                 4968 	ld	a,l
   0E76 54                 4969 	ld	d,h
   0E77 F8 05              4970 	lda	hl,5(sp)
   0E79 22                 4971 	ld	(hl+),a
   0E7A 72                 4972 	ld	(hl),d
                           4973 ; genPlus
                           4974 ; AOP_STK for _proximity_sloc0_1_0
                           4975 ; genPlusIncr
                           4976 ;	genPlusIncr failed
   0E7B 2B                 4977 	dec	hl
   0E7C 5E                 4978 	ld	e,(hl)
   0E7D 23                 4979 	inc	hl
   0E7E 56                 4980 	ld	d,(hl)
   0E7F 21 06 00           4981 	ld	hl,#0x0006
   0E82 19                 4982 	add	hl,de
   0E83 5D                 4983 	ld	e,l
   0E84 54                 4984 	ld	d,h
                           4985 ; genPointerGet
   0E85 1A                 4986 	ld	a,(de)
   0E86 4F                 4987 	ld	c,a
                           4988 ; genIfx
                           4989 ; Removed redundent or a,a
   0E87 AF                 4990 	xor	a,a
   0E88 B1                 4991 	or	a,c
   0E89 CA D9 0F           4992 	jp	z,00115$
                           4993 ;	src\\functions.c 124
                           4994 ; genPlus
                           4995 ; AOP_STK for _proximity_sloc0_1_0
                           4996 ; genPlusIncr
                           4997 ;	genPlusIncr failed
   0E8C F8 05              4998 	lda	hl,5(sp)
   0E8E 5E                 4999 	ld	e,(hl)
   0E8F 23                 5000 	inc	hl
   0E90 56                 5001 	ld	d,(hl)
   0E91 21 0E 00           5002 	ld	hl,#0x000E
   0E94 19                 5003 	add	hl,de
   0E95 5D                 5004 	ld	e,l
   0E96 54                 5005 	ld	d,h
                           5006 ; genPointerGet
   0E97 1A                 5007 	ld	a,(de)
   0E98 4F                 5008 	ld	c,a
                           5009 ; genCmpEq
   0E99 79                 5010 	ld	a,c ; 2
   0E9A FE 01              5011 	cp	a,#0x01
   0E9C C2 A1 0E           5012 	jp	nz,00126$
   0E9F 18 03              5013 	jr	00127$
   0EA1                    5014 00126$:
   0EA1 C3 D9 0F           5015 	jp	00115$
   0EA4                    5016 00127$:
                           5017 ;	src\\functions.c 125
                           5018 ; genPointerGet
                           5019 ; AOP_STK for _proximity_sloc1_1_0
   0EA4 11 0C 00           5020 	ld	de,#_player_location + 0
   0EA7 1A                 5021 	ld	a,(de)
   0EA8 F8 03              5022 	lda	hl,3(sp)
   0EAA 77                 5023 	ld	(hl),a
   0EAB 13                 5024 	inc	de
   0EAC 1A                 5025 	ld	a,(de)
   0EAD 23                 5026 	inc	hl
                           5027 ; genPlus
                           5028 ; AOP_STK for _proximity_sloc0_1_0
                           5029 ; genPlusIncr
                           5030 ;	genPlusIncr failed
   0EAE 22                 5031 	ld	(hl+),a
   0EAF 5E                 5032 	ld	e,(hl)
   0EB0 23                 5033 	inc	hl
   0EB1 56                 5034 	ld	d,(hl)
   0EB2 21 04 00           5035 	ld	hl,#0x0004
   0EB5 19                 5036 	add	hl,de
   0EB6 5D                 5037 	ld	e,l
   0EB7 54                 5038 	ld	d,h
                           5039 ; genPointerGet
                           5040 ; AOP_STK for _proximity_sloc2_1_0
   0EB8 1A                 5041 	ld	a,(de)
   0EB9 F8 02              5042 	lda	hl,2(sp)
   0EBB 77                 5043 	ld	(hl),a
                           5044 ; genPlus
                           5045 ; AOP_STK for _proximity_sloc2_1_0
                           5046 ; genPlusIncr
                           5047 ;	genPlusIncr failed
   0EBC 7E                 5048 	ld	a,(hl)
   0EBD C6 08              5049 	add	a,#0x08
   0EBF 47                 5050 	ld	b,a
                           5051 ; genCast
                           5052 ; Removed redundent load
   0EC0 0E 00              5053 	ld	c,#0x00
                           5054 ; genCmpEq
                           5055 ; AOP_STK for _proximity_sloc1_1_0
   0EC2 23                 5056 	inc	hl
   0EC3 7E                 5057 	ld	a,(hl)
   0EC4 B8                 5058 	cp	b ; 4
   0EC5 C2 D0 0E           5059 	jp	nz,00128$
   0EC8 23                 5060 	inc	hl
   0EC9 7E                 5061 	ld	a,(hl)
   0ECA B9                 5062 	cp	c ; 4
   0ECB C2 D0 0E           5063 	jp	nz,00128$
   0ECE 18 03              5064 	jr	00129$
   0ED0                    5065 00128$:
   0ED0 C3 FA 0E           5066 	jp	00105$
   0ED3                    5067 00129$:
                           5068 ; genPlus
                           5069 ; genPlusIncr
   0ED3 11 0E 00           5070 	ld	de,#_player_location + 0 + 2
                           5071 ; genPointerGet
                           5072 ; AOP_STK for _proximity_sloc3_1_0
                           5073 ; Removed redundent load
                           5074 ; Removed redundent load
   0ED6 1A                 5075 	ld	a,(de)
   0ED7 F8 00              5076 	lda	hl,0(sp)
   0ED9 77                 5077 	ld	(hl),a
   0EDA 13                 5078 	inc	de
   0EDB 1A                 5079 	ld	a,(de)
   0EDC 23                 5080 	inc	hl
   0EDD 77                 5081 	ld	(hl),a
                           5082 ; genPlus
                           5083 ; AOP_STK for _proximity_sloc0_1_0
                           5084 ; genPlusIncr
                           5085 ;	genPlusIncr failed
   0EDE F8 05              5086 	lda	hl,5(sp)
   0EE0 5E                 5087 	ld	e,(hl)
   0EE1 23                 5088 	inc	hl
   0EE2 56                 5089 	ld	d,(hl)
   0EE3 21 05 00           5090 	ld	hl,#0x0005
   0EE6 19                 5091 	add	hl,de
   0EE7 5D                 5092 	ld	e,l
   0EE8 54                 5093 	ld	d,h
                           5094 ; genPointerGet
   0EE9 1A                 5095 	ld	a,(de)
   0EEA 4F                 5096 	ld	c,a
                           5097 ; genCast
                           5098 ; Removed redundent load
   0EEB 06 00              5099 	ld	b,#0x00
                           5100 ; genCmpEq
                           5101 ; AOP_STK for _proximity_sloc3_1_0
   0EED F8 00              5102 	lda	hl,0(sp)
   0EEF 7E                 5103 	ld	a,(hl)
   0EF0 B9                 5104 	cp	c ; 4
   0EF1 C2 FA 0E           5105 	jp	nz,00130$
   0EF4 23                 5106 	inc	hl
   0EF5 7E                 5107 	ld	a,(hl)
   0EF6 B8                 5108 	cp	b ; 4
                           5109 ; Rule 5
   0EF7 CA D3 0F           5110 	jp	z,00101$
   0EFA                    5111 00130$:
                           5112 ; genLabel
   0EFA                    5113 00105$:
                           5114 ; genMinus
                           5115 ; AOP_STK for _proximity_sloc2_1_0
   0EFA F8 02              5116 	lda	hl,2(sp)
   0EFC 7E                 5117 	ld	a,(hl)
   0EFD C6 F8              5118 	add	a,#0xF8
   0EFF 4F                 5119 	ld	c,a
                           5120 ; genCast
                           5121 ; Removed redundent load
   0F00 06 00              5122 	ld	b,#0x00
                           5123 ; genCmpEq
                           5124 ; AOP_STK for _proximity_sloc1_1_0
   0F02 23                 5125 	inc	hl
   0F03 7E                 5126 	ld	a,(hl)
   0F04 B9                 5127 	cp	c ; 4
   0F05 C2 10 0F           5128 	jp	nz,00131$
   0F08 23                 5129 	inc	hl
   0F09 7E                 5130 	ld	a,(hl)
   0F0A B8                 5131 	cp	b ; 4
   0F0B C2 10 0F           5132 	jp	nz,00131$
   0F0E 18 03              5133 	jr	00132$
   0F10                    5134 00131$:
   0F10 C3 3A 0F           5135 	jp	00107$
   0F13                    5136 00132$:
                           5137 ; genPlus
                           5138 ; genPlusIncr
   0F13 11 0E 00           5139 	ld	de,#_player_location + 0 + 2
                           5140 ; genPointerGet
                           5141 ; AOP_STK for _proximity_sloc3_1_0
                           5142 ; Removed redundent load
                           5143 ; Removed redundent load
   0F16 1A                 5144 	ld	a,(de)
   0F17 F8 00              5145 	lda	hl,0(sp)
   0F19 77                 5146 	ld	(hl),a
   0F1A 13                 5147 	inc	de
   0F1B 1A                 5148 	ld	a,(de)
   0F1C 23                 5149 	inc	hl
   0F1D 77                 5150 	ld	(hl),a
                           5151 ; genPlus
                           5152 ; AOP_STK for _proximity_sloc0_1_0
                           5153 ; genPlusIncr
                           5154 ;	genPlusIncr failed
   0F1E F8 05              5155 	lda	hl,5(sp)
   0F20 5E                 5156 	ld	e,(hl)
   0F21 23                 5157 	inc	hl
   0F22 56                 5158 	ld	d,(hl)
   0F23 21 05 00           5159 	ld	hl,#0x0005
   0F26 19                 5160 	add	hl,de
   0F27 5D                 5161 	ld	e,l
   0F28 54                 5162 	ld	d,h
                           5163 ; genPointerGet
   0F29 1A                 5164 	ld	a,(de)
   0F2A 4F                 5165 	ld	c,a
                           5166 ; genCast
                           5167 ; Removed redundent load
   0F2B 06 00              5168 	ld	b,#0x00
                           5169 ; genCmpEq
                           5170 ; AOP_STK for _proximity_sloc3_1_0
   0F2D F8 00              5171 	lda	hl,0(sp)
   0F2F 7E                 5172 	ld	a,(hl)
   0F30 B9                 5173 	cp	c ; 4
   0F31 C2 3A 0F           5174 	jp	nz,00133$
   0F34 23                 5175 	inc	hl
   0F35 7E                 5176 	ld	a,(hl)
   0F36 B8                 5177 	cp	b ; 4
                           5178 ; Rule 5
   0F37 CA D3 0F           5179 	jp	z,00101$
   0F3A                    5180 00133$:
                           5181 ; genLabel
   0F3A                    5182 00107$:
                           5183 ; genCast
                           5184 ; AOP_STK for _proximity_sloc2_1_0
   0F3A F8 02              5185 	lda	hl,2(sp)
   0F3C 4E                 5186 	ld	c,(hl)
   0F3D 06 00              5187 	ld	b,#0x00
                           5188 ; genCmpEq
                           5189 ; AOP_STK for _proximity_sloc1_1_0
   0F3F 23                 5190 	inc	hl
   0F40 7E                 5191 	ld	a,(hl)
   0F41 B9                 5192 	cp	c ; 4
   0F42 C2 4D 0F           5193 	jp	nz,00134$
   0F45 23                 5194 	inc	hl
   0F46 7E                 5195 	ld	a,(hl)
   0F47 B8                 5196 	cp	b ; 4
   0F48 C2 4D 0F           5197 	jp	nz,00134$
   0F4B 18 03              5198 	jr	00135$
   0F4D                    5199 00134$:
   0F4D C3 7B 0F           5200 	jp	00108$
   0F50                    5201 00135$:
                           5202 ; genPlus
                           5203 ; genPlusIncr
   0F50 11 0E 00           5204 	ld	de,#_player_location + 0 + 2
                           5205 ; genPointerGet
                           5206 ; AOP_STK for _proximity_sloc3_1_0
                           5207 ; Removed redundent load
                           5208 ; Removed redundent load
   0F53 1A                 5209 	ld	a,(de)
   0F54 F8 00              5210 	lda	hl,0(sp)
   0F56 77                 5211 	ld	(hl),a
   0F57 13                 5212 	inc	de
   0F58 1A                 5213 	ld	a,(de)
   0F59 23                 5214 	inc	hl
   0F5A 77                 5215 	ld	(hl),a
                           5216 ; genPlus
                           5217 ; AOP_STK for _proximity_sloc0_1_0
                           5218 ; genPlusIncr
                           5219 ;	genPlusIncr failed
   0F5B F8 05              5220 	lda	hl,5(sp)
   0F5D 5E                 5221 	ld	e,(hl)
   0F5E 23                 5222 	inc	hl
   0F5F 56                 5223 	ld	d,(hl)
   0F60 21 05 00           5224 	ld	hl,#0x0005
   0F63 19                 5225 	add	hl,de
   0F64 5D                 5226 	ld	e,l
   0F65 54                 5227 	ld	d,h
                           5228 ; genPointerGet
   0F66 1A                 5229 	ld	a,(de)
   0F67 4F                 5230 	ld	c,a
                           5231 ; genPlus
                           5232 ; genPlusIncr
                           5233 ;	genPlusIncr failed
   0F68 79                 5234 	ld	a,c
   0F69 C6 08              5235 	add	a,#0x08
   0F6B 4F                 5236 	ld	c,a
                           5237 ; genCast
                           5238 ; Removed redundent load
   0F6C 06 00              5239 	ld	b,#0x00
                           5240 ; genCmpEq
                           5241 ; AOP_STK for _proximity_sloc3_1_0
   0F6E F8 00              5242 	lda	hl,0(sp)
   0F70 7E                 5243 	ld	a,(hl)
   0F71 B9                 5244 	cp	c ; 4
   0F72 C2 7B 0F           5245 	jp	nz,00136$
   0F75 23                 5246 	inc	hl
   0F76 7E                 5247 	ld	a,(hl)
   0F77 B8                 5248 	cp	b ; 4
                           5249 ; Rule 5
   0F78 CA D3 0F           5250 	jp	z,00101$
   0F7B                    5251 00136$:
                           5252 ; genLabel
   0F7B                    5253 00108$:
                           5254 ; genPlus
                           5255 ; genPlusIncr
   0F7B 11 0E 00           5256 	ld	de,#_player_location + 0 + 2
                           5257 ; genPointerGet
                           5258 ; AOP_STK for _proximity_sloc3_1_0
                           5259 ; Removed redundent load
                           5260 ; Removed redundent load
   0F7E 1A                 5261 	ld	a,(de)
   0F7F F8 00              5262 	lda	hl,0(sp)
   0F81 77                 5263 	ld	(hl),a
   0F82 13                 5264 	inc	de
   0F83 1A                 5265 	ld	a,(de)
   0F84 23                 5266 	inc	hl
   0F85 77                 5267 	ld	(hl),a
                           5268 ; genPlus
                           5269 ; AOP_STK for _proximity_sloc0_1_0
                           5270 ; genPlusIncr
                           5271 ;	genPlusIncr failed
   0F86 F8 05              5272 	lda	hl,5(sp)
   0F88 5E                 5273 	ld	e,(hl)
   0F89 23                 5274 	inc	hl
   0F8A 56                 5275 	ld	d,(hl)
   0F8B 21 05 00           5276 	ld	hl,#0x0005
   0F8E 19                 5277 	add	hl,de
   0F8F 5D                 5278 	ld	e,l
   0F90 54                 5279 	ld	d,h
                           5280 ; genPointerGet
   0F91 1A                 5281 	ld	a,(de)
   0F92 4F                 5282 	ld	c,a
                           5283 ; genMinus
   0F93 79                 5284 	ld	a,c
   0F94 C6 F8              5285 	add	a,#0xF8
   0F96 4F                 5286 	ld	c,a
                           5287 ; genCast
                           5288 ; Removed redundent load
   0F97 06 00              5289 	ld	b,#0x00
                           5290 ; genCmpEq
                           5291 ; AOP_STK for _proximity_sloc3_1_0
   0F99 F8 00              5292 	lda	hl,0(sp)
   0F9B 7E                 5293 	ld	a,(hl)
   0F9C B9                 5294 	cp	c ; 4
   0F9D C2 AA 0F           5295 	jp	nz,00137$
   0FA0 23                 5296 	inc	hl
   0FA1 7E                 5297 	ld	a,(hl)
   0FA2 B8                 5298 	cp	b ; 4
   0FA3 C2 AA 0F           5299 	jp	nz,00137$
   0FA6 3E 01              5300 	ld	a,#0x01
   0FA8 18 01              5301 	jr	00138$
   0FAA                    5302 00137$:
   0FAA AF                 5303 	xor	a,a
   0FAB                    5304 00138$:
   0FAB 4F                 5305 	ld	c,a
                           5306 ; genAndOp
                           5307 ; AOP_STK for _proximity_sloc2_1_0
   0FAC AF                 5308 	xor	a,a
   0FAD F8 02              5309 	lda	hl,2(sp)
   0FAF B6                 5310 	or	a,(hl)
   0FB0 28 02              5311 	jr	z,00139$
   0FB2 AF                 5312 	xor	a,a
   0FB3 B1                 5313 	or	a,c
   0FB4                    5314 00139$:
   0FB4 28 02              5315 	jr	z,00140$
   0FB6 3E 01              5316 	ld	a,#0x01
   0FB8                    5317 00140$:
   0FB8 4F                 5318 	ld	c,a
                           5319 ; genCast
                           5320 ; AOP_STK for _proximity_sloc3_1_0
   0FB9 F8 00              5321 	lda	hl,0(sp)
   0FBB 71                 5322 	ld	(hl),c
   0FBC 23                 5323 	inc	hl
   0FBD 36 00              5324 	ld	(hl),#0x00
                           5325 ; genCmpEq
                           5326 ; AOP_STK for _proximity_sloc1_1_0
                           5327 ; AOP_STK for _proximity_sloc3_1_0
   0FBF 2B                 5328 	dec	hl
   0FC0 7E                 5329 	ld	a,(hl)
   0FC1 F8 03              5330 	lda	hl,3(sp)
   0FC3 BE                 5331 	cp	(hl) ; 5
   0FC4 20 0A              5332 	jr	nz,00141$
   0FC6 2B                 5333 	dec	hl
   0FC7 2B                 5334 	dec	hl
   0FC8 7E                 5335 	ld	a,(hl)
   0FC9 F8 04              5336 	lda	hl,4(sp)
   0FCB BE                 5337 	cp	(hl) ; 5
   0FCC 20 02              5338 	jr	nz,00141$
   0FCE 18 03              5339 	jr	00142$
   0FD0                    5340 00141$:
   0FD0 C3 D9 0F           5341 	jp	00115$
   0FD3                    5342 00142$:
                           5343 ; genLabel
   0FD3                    5344 00101$:
                           5345 ;	src\\functions.c 126
                           5346 ; genRet
                           5347 ; AOP_STK for _proximity_iter_1_1
   0FD3 F8 07              5348 	lda	hl,7(sp)
   0FD5 5E                 5349 	ld	e,(hl)
   0FD6 C3 E1 0F           5350 	jp	00117$
                           5351 ; genLabel
   0FD9                    5352 00115$:
                           5353 ;	src\\functions.c 122
                           5354 ; genPlus
                           5355 ; AOP_STK for _proximity_iter_1_1
                           5356 ; genPlusIncr
   0FD9 F8 07              5357 	lda	hl,7(sp)
   0FDB 34                 5358 	inc	(hl)
                           5359 ; genGoto
   0FDC C3 5A 0E           5360 	jp	00113$
                           5361 ; genLabel
   0FDF                    5362 00116$:
                           5363 ;	src\\functions.c 131
                           5364 ; genRet
   0FDF 1E 05              5365 	ld	e,#0x05
                           5366 ; genLabel
   0FE1                    5367 00117$:
                           5368 ; genEndFunction
   0FE1 E8 08              5369 	lda	sp,8(sp)
   0FE3 C1                 5370 	pop	bc
   0FE4 C9                 5371 	ret
   0FE5                    5372 ___proximity_end:
                           5373 ;	src\\functions.c 134
                           5374 ; genLabel
                           5375 ; genFunction
                           5376 ;	---------------------------------
                           5377 ; Function get_player_direction
                           5378 ; ---------------------------------
   0FE5                    5379 ___get_player_direction_start:
   0FE5                    5380 _get_player_direction:
   0FE5 C5                 5381 	push	bc
                           5382 	
                           5383 ;	src\\functions.c 135
                           5384 ; genIpush
   0FE6 3E 00              5385 	ld	a,#0x00
   0FE8 F5                 5386 	push	af
   0FE9 33                 5387 	inc	sp
                           5388 ; genCall
   0FEA CD 00 00           5389 	call	_get_sprite_tile
   0FED 4B                 5390 	ld	c,e
   0FEE E8 01              5391 	lda	sp,1(sp)
                           5392 ; genCmpEq
   0FF0 79                 5393 	ld	a,c
   0FF1 B7                 5394 	or	a,a
   0FF2 C2 F7 0F           5395 	jp	nz,00118$
   0FF5 18 03              5396 	jr	00119$
   0FF7                    5397 00118$:
   0FF7 C3 FF 0F           5398 	jp	00110$
   0FFA                    5399 00119$:
                           5400 ;	src\\functions.c 136
                           5401 ; genRet
   0FFA 1E 64              5402 	ld	e,#0x64
   0FFC C3 4A 10           5403 	jp	00112$
                           5404 ; genLabel
   0FFF                    5405 00110$:
                           5406 ;	src\\functions.c 138
                           5407 ; genIpush
   0FFF 3E 00              5408 	ld	a,#0x00
   1001 F5                 5409 	push	af
   1002 33                 5410 	inc	sp
                           5411 ; genCall
   1003 CD 00 00           5412 	call	_get_sprite_tile
   1006 4B                 5413 	ld	c,e
   1007 E8 01              5414 	lda	sp,1(sp)
                           5415 ; genCmpEq
   1009 79                 5416 	ld	a,c ; 2
   100A FE 01              5417 	cp	a,#0x01
   100C C2 11 10           5418 	jp	nz,00120$
   100F 18 03              5419 	jr	00121$
   1011                    5420 00120$:
   1011 C3 19 10           5421 	jp	00107$
   1014                    5422 00121$:
                           5423 ;	src\\functions.c 139
                           5424 ; genRet
   1014 1E 72              5425 	ld	e,#0x72
   1016 C3 4A 10           5426 	jp	00112$
                           5427 ; genLabel
   1019                    5428 00107$:
                           5429 ;	src\\functions.c 141
                           5430 ; genIpush
   1019 3E 00              5431 	ld	a,#0x00
   101B F5                 5432 	push	af
   101C 33                 5433 	inc	sp
                           5434 ; genCall
   101D CD 00 00           5435 	call	_get_sprite_tile
   1020 4B                 5436 	ld	c,e
   1021 E8 01              5437 	lda	sp,1(sp)
                           5438 ; genCmpEq
   1023 79                 5439 	ld	a,c ; 2
   1024 FE 02              5440 	cp	a,#0x02
   1026 C2 2B 10           5441 	jp	nz,00122$
   1029 18 03              5442 	jr	00123$
   102B                    5443 00122$:
   102B C3 33 10           5444 	jp	00104$
   102E                    5445 00123$:
                           5446 ;	src\\functions.c 142
                           5447 ; genRet
   102E 1E 6C              5448 	ld	e,#0x6C
   1030 C3 4A 10           5449 	jp	00112$
                           5450 ; genLabel
   1033                    5451 00104$:
                           5452 ;	src\\functions.c 144
                           5453 ; genIpush
   1033 3E 00              5454 	ld	a,#0x00
   1035 F5                 5455 	push	af
   1036 33                 5456 	inc	sp
                           5457 ; genCall
   1037 CD 00 00           5458 	call	_get_sprite_tile
   103A 4B                 5459 	ld	c,e
   103B E8 01              5460 	lda	sp,1(sp)
                           5461 ; genCmpEq
   103D 79                 5462 	ld	a,c ; 2
   103E FE 03              5463 	cp	a,#0x03
   1040 C2 45 10           5464 	jp	nz,00124$
   1043 18 03              5465 	jr	00125$
   1045                    5466 00124$:
   1045 C3 4A 10           5467 	jp	00112$
   1048                    5468 00125$:
                           5469 ;	src\\functions.c 145
                           5470 ; genRet
   1048 1E 75              5471 	ld	e,#0x75
                           5472 ; genLabel
   104A                    5473 00112$:
                           5474 ; genEndFunction
                           5475 	
   104A C1                 5476 	pop	bc
   104B C9                 5477 	ret
   104C                    5478 ___get_player_direction_end:
                           5479 ;	src\\functions.c 149
                           5480 ; genLabel
                           5481 ; genFunction
                           5482 ;	---------------------------------
                           5483 ; Function get_player_tile
                           5484 ; ---------------------------------
   104C                    5485 ___get_player_tile_start:
   104C                    5486 _get_player_tile:
   104C C5                 5487 	push	bc
   104D E8 FE              5488 	lda	sp,-2(sp)
                           5489 ;	src\\functions.c 152
                           5490 ; genPointerGet
   104F 11 0C 00           5491 	ld	de,#_player_location + 0
   1052 1A                 5492 	ld	a,(de)
   1053 4F                 5493 	ld	c,a
   1054 13                 5494 	inc	de
   1055 1A                 5495 	ld	a,(de)
   1056 47                 5496 	ld	b,a
                           5497 ; genMinus
   1057 79                 5498 	ld	a,c
   1058 C6 F8              5499 	add	a,#0xF8
   105A 4F                 5500 	ld	c,a
   105B 78                 5501 	ld	a,b
   105C CE FF              5502 	adc	a,#0xFF
   105E 47                 5503 	ld	b,a
                           5504 ; genRightShift
                           5505 ; AOP_STK for _get_player_tile_indexTLx_1_1
                           5506 ; shift right 	result 2, left 2
   105F F8 00              5507 	lda	hl,0(sp)
   1061 71                 5508 	ld	(hl),c
   1062 23                 5509 	inc	hl
   1063 70                 5510 	ld	(hl),b
   1064 3E 04              5511 	ld	a,#0x03+1
   1066 18 08              5512 	jr	00104$
   1068                    5513 00103$:
   1068 B7                 5514 	or	a,a
   1069 F8 01              5515 	lda	hl,1(sp)
   106B CB 1E              5516 	rr	(hl)
   106D 2B                 5517 	dec	hl
   106E CB 1E              5518 	rr	(hl)
   1070                    5519 00104$:
   1070 3D                 5520 	dec	a
   1071 20 F5              5521 	jr	nz,00103$
                           5522 ;	src\\functions.c 153
                           5523 ; genPlus
                           5524 ; genPlusIncr
   1073 11 0E 00           5525 	ld	de,#_player_location + 0 + 2
                           5526 ; genPointerGet
                           5527 ; Removed redundent load
                           5528 ; Removed redundent load
   1076 1A                 5529 	ld	a,(de)
   1077 4F                 5530 	ld	c,a
   1078 13                 5531 	inc	de
   1079 1A                 5532 	ld	a,(de)
   107A 47                 5533 	ld	b,a
                           5534 ; genMinus
   107B 79                 5535 	ld	a,c
   107C C6 F0              5536 	add	a,#0xF0
   107E 4F                 5537 	ld	c,a
   107F 78                 5538 	ld	a,b
   1080 CE FF              5539 	adc	a,#0xFF
   1082 47                 5540 	ld	b,a
                           5541 ; genRightShift
                           5542 ; shift right 	result 2, left 2
   1083 3E 04              5543 	ld	a,#0x03+1
   1085 18 05              5544 	jr	00106$
   1087                    5545 00105$:
   1087 B7                 5546 	or	a,a
   1088 CB 18              5547 	rr	b
   108A CB 19              5548 	rr	c
   108C                    5549 00106$:
   108C 3D                 5550 	dec	a
   108D 20 F8              5551 	jr	nz,00105$
                           5552 ;	src\\functions.c 154
                           5553 ; genIpush
   108F 21 14 00           5554 	ld	hl,#0x0014
   1092 E5                 5555 	push	hl
                           5556 ; genIpush
   1093 C5                 5557 	push	bc
                           5558 ; genCall
   1094 CD 00 00           5559 	call	__muluint
   1097 42                 5560 	ld	b,d
   1098 4B                 5561 	ld	c,e
   1099 E8 04              5562 	lda	sp,4(sp)
                           5563 ; genPlus
                           5564 ; AOP_STK for _get_player_tile_indexTLx_1_1
                           5565 ;	genPlusIncr failed
   109B F8 00              5566 	lda	hl,0(sp)
   109D 2A                 5567 	ld	a,(hl+)
   109E 66                 5568 	ld	h,(hl)
   109F 6F                 5569 	ld	l,a
   10A0 09                 5570 	add	hl,bc
   10A1 4D                 5571 	ld	c,l
   10A2 44                 5572 	ld	b,h
                           5573 ;	src\\functions.c 156
                           5574 ; genRet
   10A3 59                 5575 	ld	e,c
   10A4 50                 5576 	ld	d,b
                           5577 ; genLabel
   10A5                    5578 00101$:
                           5579 ; genEndFunction
   10A5 E8 02              5580 	lda	sp,2(sp)
   10A7 C1                 5581 	pop	bc
   10A8 C9                 5582 	ret
   10A9                    5583 ___get_player_tile_end:
                           5584 ;	src\\functions.c 159
                           5585 ; genLabel
                           5586 ; genFunction
                           5587 ;	---------------------------------
                           5588 ; Function set_player_tile
                           5589 ; ---------------------------------
   10A9                    5590 ___set_player_tile_start:
   10A9                    5591 _set_player_tile:
   10A9 C5                 5592 	push	bc
   10AA E8 FC              5593 	lda	sp,-4(sp)
                           5594 ;	src\\functions.c 160
                           5595 ; genIpush
   10AC 21 14 00           5596 	ld	hl,#0x0014
   10AF E5                 5597 	push	hl
                           5598 ; genIpush
                           5599 ; AOP_STK for 
   10B0 F8 0A              5600 	lda	hl,10(sp)
   10B2 2A                 5601 	ld	a,(hl+)
   10B3 66                 5602 	ld	h,(hl)
   10B4 6F                 5603 	ld	l,a
   10B5 E5                 5604 	push	hl
                           5605 ; genCall
   10B6 CD 00 00           5606 	call	__moduint
   10B9 42                 5607 	ld	b,d
   10BA 4B                 5608 	ld	c,e
   10BB E8 04              5609 	lda	sp,4(sp)
                           5610 ; genLeftShift
   10BD 3E 04              5611 	ld	a,#0x03+1
   10BF 18 05              5612 	jr	00104$
   10C1                    5613 00103$:
   10C1 B7                 5614 	or	a,a
   10C2 CB 11              5615 	rl	c
   10C4 CB 10              5616 	rl	b
   10C6                    5617 00104$:
   10C6 3D                 5618 	dec	a
   10C7 20 F8              5619 	jr	nz,00103$
                           5620 ; genPlus
                           5621 ; AOP_STK for _set_player_tile_sloc0_1_0
                           5622 ; genPlusIncr
                           5623 ;	genPlusIncr failed
   10C9 21 08 00           5624 	ld	hl,#0x0008
   10CC 09                 5625 	add	hl,bc
   10CD 7D                 5626 	ld	a,l
   10CE 54                 5627 	ld	d,h
   10CF F8 02              5628 	lda	hl,2(sp)
   10D1 22                 5629 	ld	(hl+),a
   10D2 72                 5630 	ld	(hl),d
                           5631 ; genAssign (pointer)
                           5632 ; AOP_STK for _set_player_tile_sloc0_1_0
   10D3 11 0C 00           5633 	ld	de,#_player_location + 0
   10D6 2B                 5634 	dec	hl
   10D7 7E                 5635 	ld	a,(hl)
   10D8 12                 5636 	ld	(de),a
   10D9 13                 5637 	inc	de
   10DA 23                 5638 	inc	hl
   10DB 7E                 5639 	ld	a,(hl)
   10DC 12                 5640 	ld	(de),a
                           5641 ;	src\\functions.c 163
                           5642 ; genPlus
                           5643 ; AOP_STK for _set_player_tile_sloc1_1_0
                           5644 ; genPlusIncr
                           5645 ;	genPlusIncr failed
   10DD 11 0C 00           5646 	ld	de,#_player_location + 0
   10E0 21 02 00           5647 	ld	hl,#0x0002
   10E3 19                 5648 	add	hl,de
   10E4 7D                 5649 	ld	a,l
   10E5 54                 5650 	ld	d,h
   10E6 F8 00              5651 	lda	hl,0(sp)
   10E8 22                 5652 	ld	(hl+),a
   10E9 72                 5653 	ld	(hl),d
                           5654 ; genIpush
   10EA 21 14 00           5655 	ld	hl,#0x0014
   10ED E5                 5656 	push	hl
                           5657 ; genIpush
                           5658 ; AOP_STK for 
   10EE F8 0A              5659 	lda	hl,10(sp)
   10F0 2A                 5660 	ld	a,(hl+)
   10F1 66                 5661 	ld	h,(hl)
   10F2 6F                 5662 	ld	l,a
   10F3 E5                 5663 	push	hl
                           5664 ; genCall
   10F4 CD 00 00           5665 	call	__divuint
   10F7 42                 5666 	ld	b,d
   10F8 4B                 5667 	ld	c,e
   10F9 E8 04              5668 	lda	sp,4(sp)
                           5669 ; genLeftShift
   10FB 3E 04              5670 	ld	a,#0x03+1
   10FD 18 05              5671 	jr	00106$
   10FF                    5672 00105$:
   10FF B7                 5673 	or	a,a
   1100 CB 11              5674 	rl	c
   1102 CB 10              5675 	rl	b
   1104                    5676 00106$:
   1104 3D                 5677 	dec	a
   1105 20 F8              5678 	jr	nz,00105$
                           5679 ; genPlus
                           5680 ; genPlusIncr
                           5681 ;	genPlusIncr failed
   1107 79                 5682 	ld	a,c
   1108 C6 10              5683 	add	a,#0x10
   110A 4F                 5684 	ld	c,a
   110B 78                 5685 	ld	a,b
   110C CE 00              5686 	adc	a,#0x00
   110E 47                 5687 	ld	b,a
                           5688 ; genAssign (pointer)
                           5689 ; AOP_STK for _set_player_tile_sloc1_1_0
   110F F8 00              5690 	lda	hl,0(sp)
   1111 5E                 5691 	ld	e,(hl)
   1112 23                 5692 	inc	hl
   1113 56                 5693 	ld	d,(hl)
   1114 79                 5694 	ld	a,c
   1115 12                 5695 	ld	(de),a
   1116 13                 5696 	inc	de
   1117 78                 5697 	ld	a,b
   1118 12                 5698 	ld	(de),a
                           5699 ;	src\\functions.c 167
                           5700 ; genCast
                           5701 ; AOP_STK for _set_player_tile_sloc1_1_0
   1119 2B                 5702 	dec	hl
   111A 71                 5703 	ld	(hl),c
                           5704 ; genCast
                           5705 ; AOP_STK for _set_player_tile_sloc0_1_0
   111B 23                 5706 	inc	hl
   111C 23                 5707 	inc	hl
   111D 4E                 5708 	ld	c,(hl)
                           5709 ; genIpush
                           5710 ; AOP_STK for _set_player_tile_sloc1_1_0
   111E 2B                 5711 	dec	hl
   111F 2B                 5712 	dec	hl
   1120 7E                 5713 	ld	a,(hl)
   1121 F5                 5714 	push	af
   1122 33                 5715 	inc	sp
                           5716 ; genIpush
   1123 79                 5717 	ld	a,c
   1124 F5                 5718 	push	af
   1125 33                 5719 	inc	sp
                           5720 ; genIpush
   1126 3E 00              5721 	ld	a,#0x00
   1128 F5                 5722 	push	af
   1129 33                 5723 	inc	sp
                           5724 ; genCall
   112A CD 00 00           5725 	call	_move_sprite
   112D E8 03              5726 	lda	sp,3(sp)
                           5727 ; genLabel
   112F                    5728 00101$:
                           5729 ; genEndFunction
   112F E8 04              5730 	lda	sp,4(sp)
   1131 C1                 5731 	pop	bc
   1132 C9                 5732 	ret
   1133                    5733 ___set_player_tile_end:
                           5734 ;	src\\functions.c 170
                           5735 ; genLabel
                           5736 ; genFunction
                           5737 ;	---------------------------------
                           5738 ; Function set_pnj
                           5739 ; ---------------------------------
   1133                    5740 ___set_pnj_start:
   1133                    5741 _set_pnj:
   1133 C5                 5742 	push	bc
   1134 E8 FC              5743 	lda	sp,-4(sp)
                           5744 ;	src\\functions.c 171
                           5745 ; genAssign
                           5746 ; AOP_STK for 
                           5747 ; AOP_STK for _set_pnj_sloc0_1_0
   1136 F8 08              5748 	lda	hl,8(sp)
   1138 2A                 5749 	ld	a,(hl+)
   1139 5E                 5750 	ld	e,(hl)
   113A F8 02              5751 	lda	hl,2(sp)
   113C 22                 5752 	ld	(hl+),a
   113D 73                 5753 	ld	(hl),e
                           5754 ; genPlus
                           5755 ; AOP_STK for _set_pnj_sloc0_1_0
                           5756 ; genPlusIncr
                           5757 ;	genPlusIncr failed
   113E 2B                 5758 	dec	hl
   113F 5E                 5759 	ld	e,(hl)
   1140 23                 5760 	inc	hl
   1141 56                 5761 	ld	d,(hl)
   1142 21 07 00           5762 	ld	hl,#0x0007
   1145 19                 5763 	add	hl,de
   1146 5D                 5764 	ld	e,l
   1147 54                 5765 	ld	d,h
                           5766 ; genPointerGet
                           5767 ; AOP_STK for _set_pnj_sloc1_1_0
                           5768 ; Removed redundent load
                           5769 ; Removed redundent load
   1148 1A                 5770 	ld	a,(de)
   1149 F8 00              5771 	lda	hl,0(sp)
   114B 77                 5772 	ld	(hl),a
   114C 13                 5773 	inc	de
   114D 1A                 5774 	ld	a,(de)
   114E 23                 5775 	inc	hl
                           5776 ; genPlus
                           5777 ; AOP_STK for _set_pnj_sloc0_1_0
                           5778 ; genPlusIncr
   114F 22                 5779 	ld	(hl+),a
   1150 5E                 5780 	ld	e,(hl)
   1151 23                 5781 	inc	hl
   1152 56                 5782 	ld	d,(hl)
   1153 13                 5783 	inc	de
   1154 13                 5784 	inc	de
                           5785 ; genPointerGet
   1155 1A                 5786 	ld	a,(de)
   1156 4F                 5787 	ld	c,a
                           5788 ; genIpush
                           5789 ; AOP_STK for _set_pnj_sloc1_1_0
   1157 F8 00              5790 	lda	hl,0(sp)
   1159 2A                 5791 	ld	a,(hl+)
   115A 66                 5792 	ld	h,(hl)
   115B 6F                 5793 	ld	l,a
   115C E5                 5794 	push	hl
                           5795 ; genIpush
   115D 3E 01              5796 	ld	a,#0x01
   115F F5                 5797 	push	af
   1160 33                 5798 	inc	sp
                           5799 ; genIpush
   1161 79                 5800 	ld	a,c
   1162 F5                 5801 	push	af
   1163 33                 5802 	inc	sp
                           5803 ; genCall
   1164 CD 00 00           5804 	call	_set_sprite_data
   1167 E8 04              5805 	lda	sp,4(sp)
                           5806 ;	src\\functions.c 172
                           5807 ; genPlus
                           5808 ; AOP_STK for _set_pnj_sloc0_1_0
                           5809 ; genPlusIncr
                           5810 ;	genPlusIncr failed
   1169 F8 02              5811 	lda	hl,2(sp)
   116B 5E                 5812 	ld	e,(hl)
   116C 23                 5813 	inc	hl
   116D 56                 5814 	ld	d,(hl)
   116E 21 03 00           5815 	ld	hl,#0x0003
   1171 19                 5816 	add	hl,de
   1172 5D                 5817 	ld	e,l
   1173 54                 5818 	ld	d,h
                           5819 ; genPointerGet
   1174 1A                 5820 	ld	a,(de)
   1175 47                 5821 	ld	b,a
                           5822 ; genIpush
   1176 79                 5823 	ld	a,c
   1177 F5                 5824 	push	af
   1178 33                 5825 	inc	sp
                           5826 ; genIpush
   1179 78                 5827 	ld	a,b
   117A F5                 5828 	push	af
   117B 33                 5829 	inc	sp
                           5830 ; genCall
   117C CD 00 00           5831 	call	_set_sprite_tile
   117F E8 02              5832 	lda	sp,2(sp)
                           5833 ;	src\\functions.c 173
                           5834 ; genPlus
                           5835 ; AOP_STK for _set_pnj_sloc0_1_0
                           5836 ; genPlusIncr
                           5837 ;	genPlusIncr failed
   1181 F8 02              5838 	lda	hl,2(sp)
   1183 5E                 5839 	ld	e,(hl)
   1184 23                 5840 	inc	hl
   1185 56                 5841 	ld	d,(hl)
   1186 21 05 00           5842 	ld	hl,#0x0005
   1189 19                 5843 	add	hl,de
   118A 5D                 5844 	ld	e,l
   118B 54                 5845 	ld	d,h
                           5846 ; genPointerGet
                           5847 ; AOP_STK for _set_pnj_sloc1_1_0
   118C 1A                 5848 	ld	a,(de)
   118D F8 00              5849 	lda	hl,0(sp)
                           5850 ; genPlus
                           5851 ; AOP_STK for _set_pnj_sloc0_1_0
                           5852 ; genPlusIncr
                           5853 ;	genPlusIncr failed
   118F 22                 5854 	ld	(hl+),a
   1190 23                 5855 	inc	hl
   1191 5E                 5856 	ld	e,(hl)
   1192 23                 5857 	inc	hl
   1193 56                 5858 	ld	d,(hl)
   1194 21 04 00           5859 	ld	hl,#0x0004
   1197 19                 5860 	add	hl,de
   1198 5D                 5861 	ld	e,l
   1199 54                 5862 	ld	d,h
                           5863 ; genPointerGet
   119A 1A                 5864 	ld	a,(de)
   119B 4F                 5865 	ld	c,a
                           5866 ; genIpush
                           5867 ; AOP_STK for _set_pnj_sloc1_1_0
   119C F8 00              5868 	lda	hl,0(sp)
   119E 7E                 5869 	ld	a,(hl)
   119F F5                 5870 	push	af
   11A0 33                 5871 	inc	sp
                           5872 ; genIpush
   11A1 79                 5873 	ld	a,c
   11A2 F5                 5874 	push	af
   11A3 33                 5875 	inc	sp
                           5876 ; genIpush
   11A4 78                 5877 	ld	a,b
   11A5 F5                 5878 	push	af
   11A6 33                 5879 	inc	sp
                           5880 ; genCall
   11A7 CD 00 00           5881 	call	_move_sprite
   11AA E8 03              5882 	lda	sp,3(sp)
                           5883 ;	src\\functions.c 174
                           5884 ; genPlus
                           5885 ; AOP_STK for _set_pnj_sloc0_1_0
                           5886 ; genPlusIncr
                           5887 ;	genPlusIncr failed
   11AC F8 02              5888 	lda	hl,2(sp)
   11AE 5E                 5889 	ld	e,(hl)
   11AF 23                 5890 	inc	hl
   11B0 56                 5891 	ld	d,(hl)
   11B1 21 06 00           5892 	ld	hl,#0x0006
   11B4 19                 5893 	add	hl,de
   11B5 5D                 5894 	ld	e,l
   11B6 54                 5895 	ld	d,h
                           5896 ; genAssign (pointer)
   11B7 3E 01              5897 	ld	a,#0x01
   11B9 12                 5898 	ld	(de),a
                           5899 ;	src\\functions.c 175
                           5900 ; genOr
                           5901 ; AOP_SFR for _LCDC_REG
                           5902 ; Type res[4] = l[4]&r[1]
                           5903 ; Size res[1] = l[1]&r[1]
   11BA F0 00              5904 	ldh	a,(_LCDC_REG+0) ; x
   11BC F6 02              5905 	or	a,#0x02
   11BE E0 00              5906 	ldh	(_LCDC_REG+0),a
                           5907 ; genLabel
   11C0                    5908 00101$:
                           5909 ; genEndFunction
   11C0 E8 04              5910 	lda	sp,4(sp)
   11C2 C1                 5911 	pop	bc
   11C3 C9                 5912 	ret
   11C4                    5913 ___set_pnj_end:
                           5914 ;	src\\functions.c 178
                           5915 ; genLabel
                           5916 ; genFunction
                           5917 ;	---------------------------------
                           5918 ; Function hide_pnj
                           5919 ; ---------------------------------
   11C4                    5920 ___hide_pnj_start:
   11C4                    5921 _hide_pnj:
   11C4 C5                 5922 	push	bc
   11C5 E8 FE              5923 	lda	sp,-2(sp)
                           5924 ;	src\\functions.c 179
                           5925 ; genAssign
                           5926 ; AOP_STK for 
                           5927 ; AOP_STK for _hide_pnj_sloc0_1_0
   11C7 F8 06              5928 	lda	hl,6(sp)
   11C9 2A                 5929 	ld	a,(hl+)
   11CA 5E                 5930 	ld	e,(hl)
   11CB F8 00              5931 	lda	hl,0(sp)
   11CD 22                 5932 	ld	(hl+),a
   11CE 73                 5933 	ld	(hl),e
                           5934 ; genPlus
                           5935 ; AOP_STK for _hide_pnj_sloc0_1_0
                           5936 ; genPlusIncr
                           5937 ;	genPlusIncr failed
   11CF 2B                 5938 	dec	hl
   11D0 5E                 5939 	ld	e,(hl)
   11D1 23                 5940 	inc	hl
   11D2 56                 5941 	ld	d,(hl)
   11D3 21 03 00           5942 	ld	hl,#0x0003
   11D6 19                 5943 	add	hl,de
   11D7 5D                 5944 	ld	e,l
   11D8 54                 5945 	ld	d,h
                           5946 ; genPointerGet
   11D9 1A                 5947 	ld	a,(de)
   11DA 4F                 5948 	ld	c,a
                           5949 ; genIpush
   11DB 3E 07              5950 	ld	a,#0x07
   11DD F5                 5951 	push	af
   11DE 33                 5952 	inc	sp
                           5953 ; genIpush
   11DF 79                 5954 	ld	a,c
   11E0 F5                 5955 	push	af
   11E1 33                 5956 	inc	sp
                           5957 ; genCall
   11E2 CD 00 00           5958 	call	_set_sprite_tile
   11E5 E8 02              5959 	lda	sp,2(sp)
                           5960 ;	src\\functions.c 181
                           5961 ; genPlus
                           5962 ; AOP_STK for _hide_pnj_sloc0_1_0
                           5963 ; genPlusIncr
                           5964 ;	genPlusIncr failed
   11E7 F8 00              5965 	lda	hl,0(sp)
   11E9 5E                 5966 	ld	e,(hl)
   11EA 23                 5967 	inc	hl
   11EB 56                 5968 	ld	d,(hl)
   11EC 21 06 00           5969 	ld	hl,#0x0006
   11EF 19                 5970 	add	hl,de
   11F0 5D                 5971 	ld	e,l
   11F1 54                 5972 	ld	d,h
                           5973 ; genAssign (pointer)
   11F2 3E 00              5974 	ld	a,#0x00
   11F4 12                 5975 	ld	(de),a
                           5976 ; genLabel
   11F5                    5977 00101$:
                           5978 ; genEndFunction
   11F5 E8 02              5979 	lda	sp,2(sp)
   11F7 C1                 5980 	pop	bc
   11F8 C9                 5981 	ret
   11F9                    5982 ___hide_pnj_end:
                           5983 ;	src\\functions.c 184
                           5984 ; genLabel
                           5985 ; genFunction
                           5986 ;	---------------------------------
                           5987 ; Function set_zone
                           5988 ; ---------------------------------
   11F9                    5989 ___set_zone_start:
   11F9                    5990 _set_zone:
   11F9 C5                 5991 	push	bc
   11FA E8 FB              5992 	lda	sp,-5(sp)
                           5993 ;	src\\functions.c 188
                           5994 ; genAssign
                           5995 ; AOP_STK for 
                           5996 ; AOP_STK for _set_zone_sloc1_1_0
   11FC F8 09              5997 	lda	hl,9(sp)
   11FE 2A                 5998 	ld	a,(hl+)
   11FF 5E                 5999 	ld	e,(hl)
   1200 F8 00              6000 	lda	hl,0(sp)
   1202 22                 6001 	ld	(hl+),a
   1203 73                 6002 	ld	(hl),e
                           6003 ; genPointerGet
                           6004 ; AOP_STK for _set_zone_sloc1_1_0
                           6005 ; AOP_STK for _set_zone_sloc0_1_0
   1204 2B                 6006 	dec	hl
   1205 5E                 6007 	ld	e,(hl)
   1206 23                 6008 	inc	hl
   1207 56                 6009 	ld	d,(hl)
   1208 1A                 6010 	ld	a,(de)
   1209 23                 6011 	inc	hl
   120A 77                 6012 	ld	(hl),a
   120B 13                 6013 	inc	de
   120C 1A                 6014 	ld	a,(de)
   120D 23                 6015 	inc	hl
   120E 77                 6016 	ld	(hl),a
                           6017 ; genIpush
                           6018 ; AOP_STK for _set_zone_sloc0_1_0
   120F 2B                 6019 	dec	hl
   1210 2A                 6020 	ld	a,(hl+)
   1211 66                 6021 	ld	h,(hl)
   1212 6F                 6022 	ld	l,a
   1213 E5                 6023 	push	hl
                           6024 ; genIpush
   1214 3E 12              6025 	ld	a,#0x12
   1216 F5                 6026 	push	af
   1217 33                 6027 	inc	sp
                           6028 ; genIpush
   1218 3E 14              6029 	ld	a,#0x14
   121A F5                 6030 	push	af
   121B 33                 6031 	inc	sp
                           6032 ; genIpush
   121C 3E 00              6033 	ld	a,#0x00
   121E F5                 6034 	push	af
   121F 33                 6035 	inc	sp
                           6036 ; genIpush
   1220 3E 00              6037 	ld	a,#0x00
   1222 F5                 6038 	push	af
   1223 33                 6039 	inc	sp
                           6040 ; genCall
   1224 CD 00 00           6041 	call	_set_bkg_tiles
   1227 E8 06              6042 	lda	sp,6(sp)
                           6043 ;	src\\functions.c 189
                           6044 ; genAssign
                           6045 ; AOP_STK for _set_zone_iter_1_1
   1229 F8 04              6046 	lda	hl,4(sp)
   122B 36 00              6047 	ld	(hl),#0x00
                           6048 ; genLabel
   122D                    6049 00101$:
                           6050 ; genCmpLt
                           6051 ; AOP_STK for _set_zone_iter_1_1
   122D F8 04              6052 	lda	hl,4(sp)
   122F 7E                 6053 	ld	a,(hl)
   1230 FE 05              6054 	cp	#0x05
   1232 D2 58 12           6055 	jp	nc,00104$
                           6056 ;	src\\functions.c 190
                           6057 ; genIpush
   1235 3E 07              6058 	ld	a,#0x07
   1237 F5                 6059 	push	af
   1238 33                 6060 	inc	sp
                           6061 ; genIpush
                           6062 ; AOP_STK for _set_zone_iter_1_1
   1239 7E                 6063 	ld	a,(hl)
   123A F5                 6064 	push	af
   123B 33                 6065 	inc	sp
                           6066 ; genCall
   123C CD 00 00           6067 	call	__muluchar
   123F 43                 6068 	ld	b,e
   1240 E8 02              6069 	lda	sp,2(sp)
                           6070 ; genPlus
                           6071 ;	genPlusIncr failed
   1242 3E 50              6072 	ld	a,#<_listezone
   1244 80                 6073 	add	a,b
   1245 47                 6074 	ld	b,a
   1246 3E 00              6075 	ld	a,#>_listezone
   1248 CE 00              6076 	adc	a,#0x00
   124A 4F                 6077 	ld	c,a
                           6078 ; genPlus
                           6079 ; genPlusIncr
   124B 58                 6080 	ld	e,b
   124C 51                 6081 	ld	d,c
   124D 13                 6082 	inc	de
   124E 13                 6083 	inc	de
                           6084 ; genAssign (pointer)
   124F 3E 00              6085 	ld	a,#0x00
   1251 12                 6086 	ld	(de),a
                           6087 ;	src\\functions.c 189
                           6088 ; genPlus
                           6089 ; AOP_STK for _set_zone_iter_1_1
                           6090 ; genPlusIncr
   1252 F8 04              6091 	lda	hl,4(sp)
   1254 34                 6092 	inc	(hl)
                           6093 ; genGoto
   1255 C3 2D 12           6094 	jp	00101$
                           6095 ; genLabel
   1258                    6096 00104$:
                           6097 ;	src\\functions.c 192
                           6098 ; genPlus
                           6099 ; AOP_STK for _set_zone_sloc1_1_0
                           6100 ; genPlusIncr
   1258 F8 00              6101 	lda	hl,0(sp)
   125A 5E                 6102 	ld	e,(hl)
   125B 23                 6103 	inc	hl
   125C 56                 6104 	ld	d,(hl)
   125D 13                 6105 	inc	de
   125E 13                 6106 	inc	de
                           6107 ; genAssign (pointer)
   125F 3E 01              6108 	ld	a,#0x01
   1261 12                 6109 	ld	(de),a
                           6110 ;	src\\functions.c 193
                           6111 ; genOr
                           6112 ; AOP_SFR for _LCDC_REG
                           6113 ; Type res[4] = l[4]&r[1]
                           6114 ; Size res[1] = l[1]&r[1]
   1262 F0 00              6115 	ldh	a,(_LCDC_REG+0) ; x
   1264 F6 01              6116 	or	a,#0x01
   1266 E0 00              6117 	ldh	(_LCDC_REG+0),a
                           6118 ; genLabel
   1268                    6119 00105$:
                           6120 ; genEndFunction
   1268 E8 05              6121 	lda	sp,5(sp)
   126A C1                 6122 	pop	bc
   126B C9                 6123 	ret
   126C                    6124 ___set_zone_end:
                           6125 ;	src\\functions.c 196
                           6126 ; genLabel
                           6127 ; genFunction
                           6128 ;	---------------------------------
                           6129 ; Function move_player
                           6130 ; ---------------------------------
   126C                    6131 ___move_player_start:
   126C                    6132 _move_player:
   126C C5                 6133 	push	bc
   126D E8 FB              6134 	lda	sp,-5(sp)
                           6135 ;	src\\functions.c 198
                           6136 ; genCmpEq
                           6137 ; AOP_STK for 
   126F F8 09              6138 	lda	hl,9(sp)
   1271 7E                 6139 	ld	a,(hl) ; 2
   1272 FE 6C              6140 	cp	a,#0x6C
   1274 C2 79 12           6141 	jp	nz,00138$
   1277 18 03              6142 	jr	00139$
   1279                    6143 00138$:
   1279 C3 F1 12           6144 	jp	00122$
   127C                    6145 00139$:
                           6146 ;	src\\functions.c 200
                           6147 ; genAssign
                           6148 ; AOP_STK for _move_player_iter_1_1
   127C F8 04              6149 	lda	hl,4(sp)
   127E 36 00              6150 	ld	(hl),#0x00
                           6151 ;	src\\functions.c 201
                           6152 ; genPointerGet
   1280 11 0C 00           6153 	ld	de,#_player_location + 0
   1283 1A                 6154 	ld	a,(de)
   1284 47                 6155 	ld	b,a
   1285 13                 6156 	inc	de
   1286 1A                 6157 	ld	a,(de)
   1287 4F                 6158 	ld	c,a
                           6159 ; genMinus
   1288 78                 6160 	ld	a,b
   1289 C6 F8              6161 	add	a,#0xF8
   128B 47                 6162 	ld	b,a
   128C 79                 6163 	ld	a,c
   128D CE FF              6164 	adc	a,#0xFF
   128F 4F                 6165 	ld	c,a
                           6166 ; genAssign (pointer)
   1290 11 0C 00           6167 	ld	de,#_player_location + 0
   1293 78                 6168 	ld	a,b
   1294 12                 6169 	ld	(de),a
   1295 13                 6170 	inc	de
   1296 79                 6171 	ld	a,c
   1297 12                 6172 	ld	(de),a
                           6173 ;	src\\functions.c 202
                           6174 ; genLabel
   1298                    6175 00101$:
                           6176 ; genCmpLt
                           6177 ; AOP_STK for _move_player_iter_1_1
   1298 F8 04              6178 	lda	hl,4(sp)
   129A 7E                 6179 	ld	a,(hl)
   129B EE 80              6180 	xor	a,#0x80
   129D FE 88              6181 	cp	#0x08^0x80
   129F D2 A4 14           6182 	jp	nc,00124$
                           6183 ;	src\\functions.c 203
                           6184 ; genIpush
   12A2 3E 04              6185 	ld	a,#0x04
   12A4 F5                 6186 	push	af
   12A5 33                 6187 	inc	sp
                           6188 ; genIpush
   12A6 3E 00              6189 	ld	a,#0x00
   12A8 F5                 6190 	push	af
   12A9 33                 6191 	inc	sp
                           6192 ; genCall
   12AA CD 00 00           6193 	call	_set_sprite_tile
   12AD E8 02              6194 	lda	sp,2(sp)
                           6195 ;	src\\functions.c 204
                           6196 ; genIpush
   12AF 3E 00              6197 	ld	a,#0x00
   12B1 F5                 6198 	push	af
   12B2 33                 6199 	inc	sp
                           6200 ; genIpush
   12B3 3E FF              6201 	ld	a,#0xFF
   12B5 F5                 6202 	push	af
   12B6 33                 6203 	inc	sp
                           6204 ; genIpush
   12B7 3E 00              6205 	ld	a,#0x00
   12B9 F5                 6206 	push	af
   12BA 33                 6207 	inc	sp
                           6208 ; genCall
   12BB CD 00 00           6209 	call	_scroll_sprite
   12BE E8 03              6210 	lda	sp,3(sp)
                           6211 ;	src\\functions.c 205
                           6212 ; genPlus
                           6213 ; AOP_STK for _move_player_iter_1_1
                           6214 ; genPlusIncr
   12C0 F8 04              6215 	lda	hl,4(sp)
   12C2 34                 6216 	inc	(hl)
                           6217 ;	src\\functions.c 206
                           6218 ; genIpush
                           6219 ; AOP_HL for _speed
   12C3 21 10 00           6220 	ld	hl,#_speed + 0
   12C6 2A                 6221 	ld	a,(hl+)
   12C7 66                 6222 	ld	h,(hl)
   12C8 6F                 6223 	ld	l,a
   12C9 E5                 6224 	push	hl
                           6225 ; genIpush
   12CA 21 05 00           6226 	ld	hl,#0x0005
   12CD E5                 6227 	push	hl
                           6228 ; genCall
   12CE CD 00 00           6229 	call	__divuint
   12D1 42                 6230 	ld	b,d
   12D2 4B                 6231 	ld	c,e
   12D3 E8 04              6232 	lda	sp,4(sp)
                           6233 ; genIpush
   12D5 C5                 6234 	push	bc
                           6235 ; genCall
   12D6 CD 00 00           6236 	call	_delay
   12D9 E8 02              6237 	lda	sp,2(sp)
                           6238 ;	src\\functions.c 207
                           6239 ; genIpush
   12DB 3E 02              6240 	ld	a,#0x02
   12DD F5                 6241 	push	af
   12DE 33                 6242 	inc	sp
                           6243 ; genIpush
   12DF 3E 00              6244 	ld	a,#0x00
   12E1 F5                 6245 	push	af
   12E2 33                 6246 	inc	sp
                           6247 ; genCall
   12E3 CD 00 00           6248 	call	_set_sprite_tile
   12E6 E8 02              6249 	lda	sp,2(sp)
                           6250 ;	src\\functions.c 208
                           6251 ; genIpush
   12E8 C5                 6252 	push	bc
                           6253 ; genCall
   12E9 CD 00 00           6254 	call	_delay
   12EC E8 02              6255 	lda	sp,2(sp)
                           6256 ; genGoto
   12EE C3 98 12           6257 	jp	00101$
                           6258 ; genLabel
   12F1                    6259 00122$:
                           6260 ;	src\\functions.c 212
                           6261 ; genCmpEq
                           6262 ; AOP_STK for 
   12F1 F8 09              6263 	lda	hl,9(sp)
   12F3 7E                 6264 	ld	a,(hl) ; 2
   12F4 FE 72              6265 	cp	a,#0x72
   12F6 C2 FB 12           6266 	jp	nz,00140$
   12F9 18 03              6267 	jr	00141$
   12FB                    6268 00140$:
   12FB C3 73 13           6269 	jp	00119$
   12FE                    6270 00141$:
                           6271 ;	src\\functions.c 214
                           6272 ; genAssign
                           6273 ; AOP_STK for _move_player_iter_1_1
   12FE F8 04              6274 	lda	hl,4(sp)
   1300 36 00              6275 	ld	(hl),#0x00
                           6276 ;	src\\functions.c 215
                           6277 ; genPointerGet
   1302 11 0C 00           6278 	ld	de,#_player_location + 0
   1305 1A                 6279 	ld	a,(de)
   1306 4F                 6280 	ld	c,a
   1307 13                 6281 	inc	de
   1308 1A                 6282 	ld	a,(de)
   1309 47                 6283 	ld	b,a
                           6284 ; genPlus
                           6285 ; genPlusIncr
                           6286 ;	genPlusIncr failed
   130A 79                 6287 	ld	a,c
   130B C6 08              6288 	add	a,#0x08
   130D 4F                 6289 	ld	c,a
   130E 78                 6290 	ld	a,b
   130F CE 00              6291 	adc	a,#0x00
   1311 47                 6292 	ld	b,a
                           6293 ; genAssign (pointer)
   1312 11 0C 00           6294 	ld	de,#_player_location + 0
   1315 79                 6295 	ld	a,c
   1316 12                 6296 	ld	(de),a
   1317 13                 6297 	inc	de
   1318 78                 6298 	ld	a,b
   1319 12                 6299 	ld	(de),a
                           6300 ;	src\\functions.c 216
                           6301 ; genLabel
   131A                    6302 00104$:
                           6303 ; genCmpLt
                           6304 ; AOP_STK for _move_player_iter_1_1
   131A F8 04              6305 	lda	hl,4(sp)
   131C 7E                 6306 	ld	a,(hl)
   131D EE 80              6307 	xor	a,#0x80
   131F FE 88              6308 	cp	#0x08^0x80
   1321 D2 A4 14           6309 	jp	nc,00124$
                           6310 ;	src\\functions.c 217
                           6311 ; genIpush
   1324 3E 00              6312 	ld	a,#0x00
   1326 F5                 6313 	push	af
   1327 33                 6314 	inc	sp
                           6315 ; genIpush
   1328 3E 00              6316 	ld	a,#0x00
   132A F5                 6317 	push	af
   132B 33                 6318 	inc	sp
                           6319 ; genCall
   132C CD 00 00           6320 	call	_set_sprite_tile
   132F E8 02              6321 	lda	sp,2(sp)
                           6322 ;	src\\functions.c 218
                           6323 ; genIpush
   1331 3E 00              6324 	ld	a,#0x00
   1333 F5                 6325 	push	af
   1334 33                 6326 	inc	sp
                           6327 ; genIpush
   1335 3E 01              6328 	ld	a,#0x01
   1337 F5                 6329 	push	af
   1338 33                 6330 	inc	sp
                           6331 ; genIpush
   1339 3E 00              6332 	ld	a,#0x00
   133B F5                 6333 	push	af
   133C 33                 6334 	inc	sp
                           6335 ; genCall
   133D CD 00 00           6336 	call	_scroll_sprite
   1340 E8 03              6337 	lda	sp,3(sp)
                           6338 ;	src\\functions.c 219
                           6339 ; genPlus
                           6340 ; AOP_STK for _move_player_iter_1_1
                           6341 ; genPlusIncr
   1342 F8 04              6342 	lda	hl,4(sp)
   1344 34                 6343 	inc	(hl)
                           6344 ;	src\\functions.c 220
                           6345 ; genIpush
                           6346 ; AOP_HL for _speed
   1345 21 10 00           6347 	ld	hl,#_speed + 0
   1348 2A                 6348 	ld	a,(hl+)
   1349 66                 6349 	ld	h,(hl)
   134A 6F                 6350 	ld	l,a
   134B E5                 6351 	push	hl
                           6352 ; genIpush
   134C 21 05 00           6353 	ld	hl,#0x0005
   134F E5                 6354 	push	hl
                           6355 ; genCall
   1350 CD 00 00           6356 	call	__divuint
   1353 42                 6357 	ld	b,d
   1354 4B                 6358 	ld	c,e
   1355 E8 04              6359 	lda	sp,4(sp)
                           6360 ; genIpush
   1357 C5                 6361 	push	bc
                           6362 ; genCall
   1358 CD 00 00           6363 	call	_delay
   135B E8 02              6364 	lda	sp,2(sp)
                           6365 ;	src\\functions.c 221
                           6366 ; genIpush
   135D 3E 01              6367 	ld	a,#0x01
   135F F5                 6368 	push	af
   1360 33                 6369 	inc	sp
                           6370 ; genIpush
   1361 3E 00              6371 	ld	a,#0x00
   1363 F5                 6372 	push	af
   1364 33                 6373 	inc	sp
                           6374 ; genCall
   1365 CD 00 00           6375 	call	_set_sprite_tile
   1368 E8 02              6376 	lda	sp,2(sp)
                           6377 ;	src\\functions.c 222
                           6378 ; genIpush
   136A C5                 6379 	push	bc
                           6380 ; genCall
   136B CD 00 00           6381 	call	_delay
   136E E8 02              6382 	lda	sp,2(sp)
                           6383 ; genGoto
   1370 C3 1A 13           6384 	jp	00104$
                           6385 ; genLabel
   1373                    6386 00119$:
                           6387 ;	src\\functions.c 226
                           6388 ; genCmpEq
                           6389 ; AOP_STK for 
   1373 F8 09              6390 	lda	hl,9(sp)
   1375 7E                 6391 	ld	a,(hl) ; 2
   1376 FE 75              6392 	cp	a,#0x75
   1378 C2 7D 13           6393 	jp	nz,00142$
   137B 18 03              6394 	jr	00143$
   137D                    6395 00142$:
   137D C3 0D 14           6396 	jp	00116$
   1380                    6397 00143$:
                           6398 ;	src\\functions.c 227
                           6399 ; genAssign
                           6400 ; AOP_STK for _move_player_iter_1_1
   1380 F8 04              6401 	lda	hl,4(sp)
   1382 36 00              6402 	ld	(hl),#0x00
                           6403 ;	src\\functions.c 228
                           6404 ; genPlus
                           6405 ; AOP_STK for _move_player_sloc1_1_0
                           6406 ; genPlusIncr
                           6407 ;	genPlusIncr failed
   1384 11 0C 00           6408 	ld	de,#_player_location + 0
   1387 21 02 00           6409 	ld	hl,#0x0002
   138A 19                 6410 	add	hl,de
   138B 7D                 6411 	ld	a,l
   138C 54                 6412 	ld	d,h
   138D F8 00              6413 	lda	hl,0(sp)
   138F 22                 6414 	ld	(hl+),a
   1390 72                 6415 	ld	(hl),d
                           6416 ; genPointerGet
                           6417 ; AOP_STK for _move_player_sloc1_1_0
                           6418 ; AOP_STK for _move_player_sloc0_1_0
   1391 2B                 6419 	dec	hl
   1392 5E                 6420 	ld	e,(hl)
   1393 23                 6421 	inc	hl
   1394 56                 6422 	ld	d,(hl)
   1395 1A                 6423 	ld	a,(de)
   1396 23                 6424 	inc	hl
   1397 77                 6425 	ld	(hl),a
   1398 13                 6426 	inc	de
   1399 1A                 6427 	ld	a,(de)
   139A 23                 6428 	inc	hl
   139B 77                 6429 	ld	(hl),a
                           6430 ; genMinus
                           6431 ; AOP_STK for _move_player_sloc0_1_0
   139C 2B                 6432 	dec	hl
   139D 5E                 6433 	ld	e,(hl)
   139E 23                 6434 	inc	hl
   139F 56                 6435 	ld	d,(hl)
   13A0 21 08 00           6436 	ld	hl,#0x0008
   13A3 7B                 6437 	ld	a,e
   13A4 95                 6438 	sub	a,l
   13A5 5F                 6439 	ld	e,a
   13A6 7A                 6440 	ld	a,d
   13A7 9C                 6441 	sbc	a,h
   13A8 47                 6442 	ld	b,a
   13A9 4B                 6443 	ld	c,e
                           6444 ; genAssign (pointer)
                           6445 ; AOP_STK for _move_player_sloc1_1_0
   13AA F8 00              6446 	lda	hl,0(sp)
   13AC 5E                 6447 	ld	e,(hl)
   13AD 23                 6448 	inc	hl
   13AE 56                 6449 	ld	d,(hl)
   13AF 79                 6450 	ld	a,c
   13B0 12                 6451 	ld	(de),a
   13B1 13                 6452 	inc	de
   13B2 78                 6453 	ld	a,b
   13B3 12                 6454 	ld	(de),a
                           6455 ;	src\\functions.c 229
                           6456 ; genLabel
   13B4                    6457 00107$:
                           6458 ; genCmpLt
                           6459 ; AOP_STK for _move_player_iter_1_1
   13B4 F8 04              6460 	lda	hl,4(sp)
   13B6 7E                 6461 	ld	a,(hl)
   13B7 EE 80              6462 	xor	a,#0x80
   13B9 FE 88              6463 	cp	#0x08^0x80
   13BB D2 A4 14           6464 	jp	nc,00124$
                           6465 ;	src\\functions.c 230
                           6466 ; genIpush
   13BE 3E 06              6467 	ld	a,#0x06
   13C0 F5                 6468 	push	af
   13C1 33                 6469 	inc	sp
                           6470 ; genIpush
   13C2 3E 00              6471 	ld	a,#0x00
   13C4 F5                 6472 	push	af
   13C5 33                 6473 	inc	sp
                           6474 ; genCall
   13C6 CD 00 00           6475 	call	_set_sprite_tile
   13C9 E8 02              6476 	lda	sp,2(sp)
                           6477 ;	src\\functions.c 231
                           6478 ; genIpush
   13CB 3E FF              6479 	ld	a,#0xFF
   13CD F5                 6480 	push	af
   13CE 33                 6481 	inc	sp
                           6482 ; genIpush
   13CF 3E 00              6483 	ld	a,#0x00
   13D1 F5                 6484 	push	af
   13D2 33                 6485 	inc	sp
                           6486 ; genIpush
   13D3 3E 00              6487 	ld	a,#0x00
   13D5 F5                 6488 	push	af
   13D6 33                 6489 	inc	sp
                           6490 ; genCall
   13D7 CD 00 00           6491 	call	_scroll_sprite
   13DA E8 03              6492 	lda	sp,3(sp)
                           6493 ;	src\\functions.c 232
                           6494 ; genPlus
                           6495 ; AOP_STK for _move_player_iter_1_1
                           6496 ; genPlusIncr
   13DC F8 04              6497 	lda	hl,4(sp)
   13DE 34                 6498 	inc	(hl)
                           6499 ;	src\\functions.c 233
                           6500 ; genIpush
                           6501 ; AOP_HL for _speed
   13DF 21 10 00           6502 	ld	hl,#_speed + 0
   13E2 2A                 6503 	ld	a,(hl+)
   13E3 66                 6504 	ld	h,(hl)
   13E4 6F                 6505 	ld	l,a
   13E5 E5                 6506 	push	hl
                           6507 ; genIpush
   13E6 21 05 00           6508 	ld	hl,#0x0005
   13E9 E5                 6509 	push	hl
                           6510 ; genCall
   13EA CD 00 00           6511 	call	__divuint
   13ED 42                 6512 	ld	b,d
   13EE 4B                 6513 	ld	c,e
   13EF E8 04              6514 	lda	sp,4(sp)
                           6515 ; genIpush
   13F1 C5                 6516 	push	bc
                           6517 ; genCall
   13F2 CD 00 00           6518 	call	_delay
   13F5 E8 02              6519 	lda	sp,2(sp)
                           6520 ;	src\\functions.c 234
                           6521 ; genIpush
   13F7 3E 03              6522 	ld	a,#0x03
   13F9 F5                 6523 	push	af
   13FA 33                 6524 	inc	sp
                           6525 ; genIpush
   13FB 3E 00              6526 	ld	a,#0x00
   13FD F5                 6527 	push	af
   13FE 33                 6528 	inc	sp
                           6529 ; genCall
   13FF CD 00 00           6530 	call	_set_sprite_tile
   1402 E8 02              6531 	lda	sp,2(sp)
                           6532 ;	src\\functions.c 235
                           6533 ; genIpush
   1404 C5                 6534 	push	bc
                           6535 ; genCall
   1405 CD 00 00           6536 	call	_delay
   1408 E8 02              6537 	lda	sp,2(sp)
                           6538 ; genGoto
   140A C3 B4 13           6539 	jp	00107$
                           6540 ; genLabel
   140D                    6541 00116$:
                           6542 ;	src\\functions.c 239
                           6543 ; genCmpEq
                           6544 ; AOP_STK for 
   140D F8 09              6545 	lda	hl,9(sp)
   140F 7E                 6546 	ld	a,(hl) ; 2
   1410 FE 64              6547 	cp	a,#0x64
   1412 C2 17 14           6548 	jp	nz,00144$
   1415 18 03              6549 	jr	00145$
   1417                    6550 00144$:
   1417 C3 A4 14           6551 	jp	00124$
   141A                    6552 00145$:
                           6553 ;	src\\functions.c 241
                           6554 ; genAssign
                           6555 ; AOP_STK for _move_player_iter_1_1
   141A F8 04              6556 	lda	hl,4(sp)
   141C 36 00              6557 	ld	(hl),#0x00
                           6558 ;	src\\functions.c 242
                           6559 ; genPlus
                           6560 ; AOP_STK for _move_player_sloc0_1_0
                           6561 ; genPlusIncr
                           6562 ;	genPlusIncr failed
   141E 11 0C 00           6563 	ld	de,#_player_location + 0
   1421 21 02 00           6564 	ld	hl,#0x0002
   1424 19                 6565 	add	hl,de
   1425 7D                 6566 	ld	a,l
   1426 54                 6567 	ld	d,h
   1427 F8 02              6568 	lda	hl,2(sp)
   1429 22                 6569 	ld	(hl+),a
   142A 72                 6570 	ld	(hl),d
                           6571 ; genPointerGet
                           6572 ; AOP_STK for _move_player_sloc0_1_0
                           6573 ; AOP_STK for _move_player_sloc1_1_0
   142B 2B                 6574 	dec	hl
   142C 5E                 6575 	ld	e,(hl)
   142D 23                 6576 	inc	hl
   142E 56                 6577 	ld	d,(hl)
   142F 1A                 6578 	ld	a,(de)
   1430 F8 00              6579 	lda	hl,0(sp)
   1432 77                 6580 	ld	(hl),a
   1433 13                 6581 	inc	de
   1434 1A                 6582 	ld	a,(de)
   1435 23                 6583 	inc	hl
   1436 77                 6584 	ld	(hl),a
                           6585 ; genPlus
                           6586 ; AOP_STK for _move_player_sloc1_1_0
                           6587 ; genPlusIncr
                           6588 ;	genPlusIncr failed
   1437 2B                 6589 	dec	hl
   1438 5E                 6590 	ld	e,(hl)
   1439 23                 6591 	inc	hl
   143A 56                 6592 	ld	d,(hl)
   143B 21 08 00           6593 	ld	hl,#0x0008
   143E 19                 6594 	add	hl,de
   143F 4D                 6595 	ld	c,l
   1440 44                 6596 	ld	b,h
                           6597 ; genAssign (pointer)
                           6598 ; AOP_STK for _move_player_sloc0_1_0
   1441 F8 02              6599 	lda	hl,2(sp)
   1443 5E                 6600 	ld	e,(hl)
   1444 23                 6601 	inc	hl
   1445 56                 6602 	ld	d,(hl)
   1446 79                 6603 	ld	a,c
   1447 12                 6604 	ld	(de),a
   1448 13                 6605 	inc	de
   1449 78                 6606 	ld	a,b
   144A 12                 6607 	ld	(de),a
                           6608 ;	src\\functions.c 243
                           6609 ; genLabel
   144B                    6610 00110$:
                           6611 ; genCmpLt
                           6612 ; AOP_STK for _move_player_iter_1_1
   144B F8 04              6613 	lda	hl,4(sp)
   144D 7E                 6614 	ld	a,(hl)
   144E EE 80              6615 	xor	a,#0x80
   1450 FE 88              6616 	cp	#0x08^0x80
   1452 D2 A4 14           6617 	jp	nc,00124$
                           6618 ;	src\\functions.c 244
                           6619 ; genIpush
   1455 3E 05              6620 	ld	a,#0x05
   1457 F5                 6621 	push	af
   1458 33                 6622 	inc	sp
                           6623 ; genIpush
   1459 3E 00              6624 	ld	a,#0x00
   145B F5                 6625 	push	af
   145C 33                 6626 	inc	sp
                           6627 ; genCall
   145D CD 00 00           6628 	call	_set_sprite_tile
   1460 E8 02              6629 	lda	sp,2(sp)
                           6630 ;	src\\functions.c 245
                           6631 ; genIpush
   1462 3E 01              6632 	ld	a,#0x01
   1464 F5                 6633 	push	af
   1465 33                 6634 	inc	sp
                           6635 ; genIpush
   1466 3E 00              6636 	ld	a,#0x00
   1468 F5                 6637 	push	af
   1469 33                 6638 	inc	sp
                           6639 ; genIpush
   146A 3E 00              6640 	ld	a,#0x00
   146C F5                 6641 	push	af
   146D 33                 6642 	inc	sp
                           6643 ; genCall
   146E CD 00 00           6644 	call	_scroll_sprite
   1471 E8 03              6645 	lda	sp,3(sp)
                           6646 ;	src\\functions.c 246
                           6647 ; genPlus
                           6648 ; AOP_STK for _move_player_iter_1_1
                           6649 ; genPlusIncr
   1473 F8 04              6650 	lda	hl,4(sp)
   1475 34                 6651 	inc	(hl)
                           6652 ;	src\\functions.c 247
                           6653 ; genIpush
                           6654 ; AOP_HL for _speed
   1476 21 10 00           6655 	ld	hl,#_speed + 0
   1479 2A                 6656 	ld	a,(hl+)
   147A 66                 6657 	ld	h,(hl)
   147B 6F                 6658 	ld	l,a
   147C E5                 6659 	push	hl
                           6660 ; genIpush
   147D 21 05 00           6661 	ld	hl,#0x0005
   1480 E5                 6662 	push	hl
                           6663 ; genCall
   1481 CD 00 00           6664 	call	__divuint
   1484 42                 6665 	ld	b,d
   1485 4B                 6666 	ld	c,e
   1486 E8 04              6667 	lda	sp,4(sp)
                           6668 ; genIpush
   1488 C5                 6669 	push	bc
                           6670 ; genCall
   1489 CD 00 00           6671 	call	_delay
   148C E8 02              6672 	lda	sp,2(sp)
                           6673 ;	src\\functions.c 248
                           6674 ; genIpush
   148E 3E 00              6675 	ld	a,#0x00
   1490 F5                 6676 	push	af
   1491 33                 6677 	inc	sp
                           6678 ; genIpush
   1492 3E 00              6679 	ld	a,#0x00
   1494 F5                 6680 	push	af
   1495 33                 6681 	inc	sp
                           6682 ; genCall
   1496 CD 00 00           6683 	call	_set_sprite_tile
   1499 E8 02              6684 	lda	sp,2(sp)
                           6685 ;	src\\functions.c 249
                           6686 ; genIpush
   149B C5                 6687 	push	bc
                           6688 ; genCall
   149C CD 00 00           6689 	call	_delay
   149F E8 02              6690 	lda	sp,2(sp)
                           6691 ; genGoto
   14A1 C3 4B 14           6692 	jp	00110$
                           6693 ; genLabel
   14A4                    6694 00124$:
                           6695 ; genEndFunction
   14A4 E8 05              6696 	lda	sp,5(sp)
   14A6 C1                 6697 	pop	bc
   14A7 C9                 6698 	ret
   14A8                    6699 ___move_player_end:
                           6700 ;	src\\functions.c 255
                           6701 ; genLabel
                           6702 ; genFunction
                           6703 ;	---------------------------------
                           6704 ; Function get_active_zone
                           6705 ; ---------------------------------
   14A8                    6706 ___get_active_zone_start:
   14A8                    6707 _get_active_zone:
   14A8 C5                 6708 	push	bc
   14A9 E8 FF              6709 	lda	sp,-1(sp)
                           6710 ;	src\\functions.c 258
                           6711 ; genAssign
                           6712 ; AOP_STK for _get_active_zone_iter2_1_1
   14AB F8 00              6713 	lda	hl,0(sp)
   14AD 36 00              6714 	ld	(hl),#0x00
                           6715 ; genLabel
   14AF                    6716 00103$:
                           6717 ; genCmpLt
                           6718 ; AOP_STK for _get_active_zone_iter2_1_1
   14AF F8 00              6719 	lda	hl,0(sp)
   14B1 7E                 6720 	ld	a,(hl)
   14B2 FE 05              6721 	cp	#0x05
   14B4 D2 EA 14           6722 	jp	nc,00107$
                           6723 ;	src\\functions.c 259
                           6724 ; genIpush
   14B7 3E 07              6725 	ld	a,#0x07
   14B9 F5                 6726 	push	af
   14BA 33                 6727 	inc	sp
                           6728 ; genIpush
                           6729 ; AOP_STK for _get_active_zone_iter2_1_1
   14BB 7E                 6730 	ld	a,(hl)
   14BC F5                 6731 	push	af
   14BD 33                 6732 	inc	sp
                           6733 ; genCall
   14BE CD 00 00           6734 	call	__muluchar
   14C1 43                 6735 	ld	b,e
   14C2 E8 02              6736 	lda	sp,2(sp)
                           6737 ; genPlus
                           6738 ;	genPlusIncr failed
   14C4 3E 50              6739 	ld	a,#<_listezone
   14C6 80                 6740 	add	a,b
   14C7 47                 6741 	ld	b,a
   14C8 3E 00              6742 	ld	a,#>_listezone
   14CA CE 00              6743 	adc	a,#0x00
   14CC 4F                 6744 	ld	c,a
                           6745 ; genPlus
                           6746 ; genPlusIncr
   14CD 58                 6747 	ld	e,b
   14CE 51                 6748 	ld	d,c
   14CF 13                 6749 	inc	de
   14D0 13                 6750 	inc	de
                           6751 ; genPointerGet
   14D1 1A                 6752 	ld	a,(de)
   14D2 4F                 6753 	ld	c,a
                           6754 ; genCmpEq
   14D3 79                 6755 	ld	a,c ; 2
   14D4 FE 01              6756 	cp	a,#0x01
   14D6 C2 DB 14           6757 	jp	nz,00112$
   14D9 18 03              6758 	jr	00113$
   14DB                    6759 00112$:
   14DB C3 E4 14           6760 	jp	00105$
   14DE                    6761 00113$:
                           6762 ;	src\\functions.c 260
                           6763 ; genRet
                           6764 ; AOP_STK for _get_active_zone_iter2_1_1
   14DE F8 00              6765 	lda	hl,0(sp)
   14E0 5E                 6766 	ld	e,(hl)
   14E1 C3 EA 14           6767 	jp	00107$
                           6768 ; genLabel
   14E4                    6769 00105$:
                           6770 ;	src\\functions.c 258
                           6771 ; genPlus
                           6772 ; AOP_STK for _get_active_zone_iter2_1_1
                           6773 ; genPlusIncr
   14E4 F8 00              6774 	lda	hl,0(sp)
   14E6 34                 6775 	inc	(hl)
                           6776 ; genGoto
   14E7 C3 AF 14           6777 	jp	00103$
                           6778 ; genLabel
   14EA                    6779 00107$:
                           6780 ; genEndFunction
   14EA E8 01              6781 	lda	sp,1(sp)
   14EC C1                 6782 	pop	bc
   14ED C9                 6783 	ret
   14EE                    6784 ___get_active_zone_end:
                           6785 ;	src\\functions.c 265
                           6786 ; genLabel
                           6787 ; genFunction
                           6788 ;	---------------------------------
                           6789 ; Function get_active_pnj
                           6790 ; ---------------------------------
   14EE                    6791 ___get_active_pnj_start:
   14EE                    6792 _get_active_pnj:
   14EE C5                 6793 	push	bc
   14EF E8 FF              6794 	lda	sp,-1(sp)
                           6795 ;	src\\functions.c 268
                           6796 ; genAssign
                           6797 ; AOP_STK for _get_active_pnj_iter_1_1
   14F1 F8 00              6798 	lda	hl,0(sp)
   14F3 36 00              6799 	ld	(hl),#0x00
                           6800 ; genLabel
   14F5                    6801 00103$:
                           6802 ; genCmpLt
                           6803 ; AOP_STK for _get_active_pnj_iter_1_1
   14F5 F8 00              6804 	lda	hl,0(sp)
   14F7 7E                 6805 	ld	a,(hl)
   14F8 FE 03              6806 	cp	#0x03
   14FA D2 33 15           6807 	jp	nc,00107$
                           6808 ;	src\\functions.c 269
                           6809 ; genLeftShift
                           6810 ; AOP_STK for _get_active_pnj_iter_1_1
   14FD 7E                 6811 	ld	a,(hl)
   14FE CB 17              6812 	rl	a
   1500 CB 17              6813 	rl	a
   1502 CB 17              6814 	rl	a
   1504 CB 17              6815 	rl	a
   1506 E6 F0              6816 	and	a,#0xF0
   1508 47                 6817 	ld	b,a
                           6818 ; genPlus
                           6819 ;	genPlusIncr failed
   1509 3E 20              6820 	ld	a,#<_listepnj
   150B 80                 6821 	add	a,b
   150C 47                 6822 	ld	b,a
   150D 3E 00              6823 	ld	a,#>_listepnj
   150F CE 00              6824 	adc	a,#0x00
   1511 4F                 6825 	ld	c,a
                           6826 ; genPlus
                           6827 ; genPlusIncr
                           6828 ;	genPlusIncr failed
   1512 78                 6829 	ld	a,b
   1513 C6 06              6830 	add	a,#0x06
   1515 5F                 6831 	ld	e,a
   1516 79                 6832 	ld	a,c
   1517 CE 00              6833 	adc	a,#0x00
   1519 57                 6834 	ld	d,a
                           6835 ; genPointerGet
   151A 1A                 6836 	ld	a,(de)
   151B 4F                 6837 	ld	c,a
                           6838 ; genCmpEq
   151C 79                 6839 	ld	a,c ; 2
   151D FE 01              6840 	cp	a,#0x01
   151F C2 24 15           6841 	jp	nz,00112$
   1522 18 03              6842 	jr	00113$
   1524                    6843 00112$:
   1524 C3 2D 15           6844 	jp	00105$
   1527                    6845 00113$:
                           6846 ;	src\\functions.c 270
                           6847 ; genRet
                           6848 ; AOP_STK for _get_active_pnj_iter_1_1
   1527 F8 00              6849 	lda	hl,0(sp)
   1529 5E                 6850 	ld	e,(hl)
   152A C3 33 15           6851 	jp	00107$
                           6852 ; genLabel
   152D                    6853 00105$:
                           6854 ;	src\\functions.c 268
                           6855 ; genPlus
                           6856 ; AOP_STK for _get_active_pnj_iter_1_1
                           6857 ; genPlusIncr
   152D F8 00              6858 	lda	hl,0(sp)
   152F 34                 6859 	inc	(hl)
                           6860 ; genGoto
   1530 C3 F5 14           6861 	jp	00103$
                           6862 ; genLabel
   1533                    6863 00107$:
                           6864 ; genEndFunction
   1533 E8 01              6865 	lda	sp,1(sp)
   1535 C1                 6866 	pop	bc
   1536 C9                 6867 	ret
   1537                    6868 ___get_active_pnj_end:
                           6869 ;	src\\functions.c 275
                           6870 ; genLabel
                           6871 ; genFunction
                           6872 ;	---------------------------------
                           6873 ; Function detect_edge
                           6874 ; ---------------------------------
   1537                    6875 ___detect_edge_start:
   1537                    6876 _detect_edge:
   1537 C5                 6877 	push	bc
   1538 E8 F5              6878 	lda	sp,-11(sp)
                           6879 ;	src\\functions.c 277
                           6880 ; genCall
   153A CD A8 14           6881 	call	_get_active_zone
   153D 4B                 6882 	ld	c,e
                           6883 ; genIpush
   153E 3E 07              6884 	ld	a,#0x07
   1540 F5                 6885 	push	af
   1541 33                 6886 	inc	sp
                           6887 ; genIpush
   1542 79                 6888 	ld	a,c
   1543 F5                 6889 	push	af
   1544 33                 6890 	inc	sp
                           6891 ; genCall
   1545 CD 00 00           6892 	call	__muluchar
   1548 4B                 6893 	ld	c,e
   1549 E8 02              6894 	lda	sp,2(sp)
                           6895 ; genPlus
                           6896 ;	genPlusIncr failed
   154B 3E 50              6897 	ld	a,#<_listezone
   154D 81                 6898 	add	a,c
   154E 4F                 6899 	ld	c,a
   154F 3E 00              6900 	ld	a,#>_listezone
   1551 CE 00              6901 	adc	a,#0x00
   1553 47                 6902 	ld	b,a
                           6903 ; genPlus
                           6904 ; genPlusIncr
                           6905 ;	genPlusIncr failed
   1554 79                 6906 	ld	a,c
   1555 C6 03              6907 	add	a,#0x03
   1557 5F                 6908 	ld	e,a
   1558 78                 6909 	ld	a,b
   1559 CE 00              6910 	adc	a,#0x00
   155B 57                 6911 	ld	d,a
                           6912 ; genPointerGet
                           6913 ; AOP_STK for _detect_edge_updir_1_1
   155C 1A                 6914 	ld	a,(de)
   155D F8 0A              6915 	lda	hl,10(sp)
   155F 77                 6916 	ld	(hl),a
                           6917 ;	src\\functions.c 278
                           6918 ; genCall
   1560 CD A8 14           6919 	call	_get_active_zone
   1563 43                 6920 	ld	b,e
                           6921 ; genIpush
   1564 3E 07              6922 	ld	a,#0x07
   1566 F5                 6923 	push	af
   1567 33                 6924 	inc	sp
                           6925 ; genIpush
   1568 78                 6926 	ld	a,b
   1569 F5                 6927 	push	af
   156A 33                 6928 	inc	sp
                           6929 ; genCall
   156B CD 00 00           6930 	call	__muluchar
   156E 43                 6931 	ld	b,e
   156F E8 02              6932 	lda	sp,2(sp)
                           6933 ; genPlus
                           6934 ;	genPlusIncr failed
   1571 3E 50              6935 	ld	a,#<_listezone
   1573 80                 6936 	add	a,b
   1574 47                 6937 	ld	b,a
   1575 3E 00              6938 	ld	a,#>_listezone
   1577 CE 00              6939 	adc	a,#0x00
   1579 4F                 6940 	ld	c,a
                           6941 ; genPlus
                           6942 ; genPlusIncr
                           6943 ;	genPlusIncr failed
   157A 78                 6944 	ld	a,b
   157B C6 04              6945 	add	a,#0x04
   157D 5F                 6946 	ld	e,a
   157E 79                 6947 	ld	a,c
   157F CE 00              6948 	adc	a,#0x00
   1581 57                 6949 	ld	d,a
                           6950 ; genPointerGet
                           6951 ; AOP_STK for _detect_edge_downdir_1_1
   1582 1A                 6952 	ld	a,(de)
   1583 F8 09              6953 	lda	hl,9(sp)
   1585 77                 6954 	ld	(hl),a
                           6955 ;	src\\functions.c 279
                           6956 ; genCall
   1586 CD A8 14           6957 	call	_get_active_zone
   1589 43                 6958 	ld	b,e
                           6959 ; genIpush
   158A 3E 07              6960 	ld	a,#0x07
   158C F5                 6961 	push	af
   158D 33                 6962 	inc	sp
                           6963 ; genIpush
   158E 78                 6964 	ld	a,b
   158F F5                 6965 	push	af
   1590 33                 6966 	inc	sp
                           6967 ; genCall
   1591 CD 00 00           6968 	call	__muluchar
   1594 43                 6969 	ld	b,e
   1595 E8 02              6970 	lda	sp,2(sp)
                           6971 ; genPlus
                           6972 ;	genPlusIncr failed
   1597 3E 50              6973 	ld	a,#<_listezone
   1599 80                 6974 	add	a,b
   159A 47                 6975 	ld	b,a
   159B 3E 00              6976 	ld	a,#>_listezone
   159D CE 00              6977 	adc	a,#0x00
   159F 4F                 6978 	ld	c,a
                           6979 ; genPlus
                           6980 ; genPlusIncr
                           6981 ;	genPlusIncr failed
   15A0 78                 6982 	ld	a,b
   15A1 C6 05              6983 	add	a,#0x05
   15A3 5F                 6984 	ld	e,a
   15A4 79                 6985 	ld	a,c
   15A5 CE 00              6986 	adc	a,#0x00
   15A7 57                 6987 	ld	d,a
                           6988 ; genPointerGet
                           6989 ; AOP_STK for _detect_edge_leftdir_1_1
   15A8 1A                 6990 	ld	a,(de)
   15A9 F8 08              6991 	lda	hl,8(sp)
   15AB 77                 6992 	ld	(hl),a
                           6993 ;	src\\functions.c 280
                           6994 ; genCall
   15AC CD A8 14           6995 	call	_get_active_zone
   15AF 43                 6996 	ld	b,e
                           6997 ; genIpush
   15B0 3E 07              6998 	ld	a,#0x07
   15B2 F5                 6999 	push	af
   15B3 33                 7000 	inc	sp
                           7001 ; genIpush
   15B4 78                 7002 	ld	a,b
   15B5 F5                 7003 	push	af
   15B6 33                 7004 	inc	sp
                           7005 ; genCall
   15B7 CD 00 00           7006 	call	__muluchar
   15BA 43                 7007 	ld	b,e
   15BB E8 02              7008 	lda	sp,2(sp)
                           7009 ; genPlus
                           7010 ;	genPlusIncr failed
   15BD 3E 50              7011 	ld	a,#<_listezone
   15BF 80                 7012 	add	a,b
   15C0 47                 7013 	ld	b,a
   15C1 3E 00              7014 	ld	a,#>_listezone
   15C3 CE 00              7015 	adc	a,#0x00
   15C5 4F                 7016 	ld	c,a
                           7017 ; genPlus
                           7018 ; genPlusIncr
                           7019 ;	genPlusIncr failed
   15C6 78                 7020 	ld	a,b
   15C7 C6 06              7021 	add	a,#0x06
   15C9 5F                 7022 	ld	e,a
   15CA 79                 7023 	ld	a,c
   15CB CE 00              7024 	adc	a,#0x00
   15CD 57                 7025 	ld	d,a
                           7026 ; genPointerGet
                           7027 ; AOP_STK for _detect_edge_rightdir_1_1
   15CE 1A                 7028 	ld	a,(de)
   15CF F8 07              7029 	lda	hl,7(sp)
   15D1 77                 7030 	ld	(hl),a
                           7031 ;	src\\functions.c 281
                           7032 ; genCmpLt
                           7033 ; AOP_STK for 
   15D2 F8 10              7034 	lda	hl,16(sp)
   15D4 7E                 7035 	ld	a,(hl)
   15D5 FE 10              7036 	cp	#0x10
   15D7 D2 33 16           7037 	jp	nc,00102$
                           7038 ;	src\\functions.c 283
                           7039 ; genIpush
   15DA 3E 07              7040 	ld	a,#0x07
   15DC F5                 7041 	push	af
   15DD 33                 7042 	inc	sp
                           7043 ; genIpush
                           7044 ; AOP_STK for _detect_edge_updir_1_1
   15DE F8 0B              7045 	lda	hl,11(sp)
   15E0 7E                 7046 	ld	a,(hl)
   15E1 F5                 7047 	push	af
   15E2 33                 7048 	inc	sp
                           7049 ; genCall
   15E3 CD 00 00           7050 	call	__muluchar
   15E6 43                 7051 	ld	b,e
   15E7 E8 02              7052 	lda	sp,2(sp)
                           7053 ; genPlus
                           7054 ;	genPlusIncr failed
   15E9 3E 50              7055 	ld	a,#<_listezone
   15EB 80                 7056 	add	a,b
   15EC 47                 7057 	ld	b,a
   15ED 3E 00              7058 	ld	a,#>_listezone
   15EF CE 00              7059 	adc	a,#0x00
   15F1 4F                 7060 	ld	c,a
                           7061 ; genIpush
   15F2 68                 7062 	ld	l,b
   15F3 61                 7063 	ld	h,c
   15F4 E5                 7064 	push	hl
                           7065 ; genCall
   15F5 CD F9 11           7066 	call	_set_zone
   15F8 E8 02              7067 	lda	sp,2(sp)
                           7068 ;	src\\functions.c 284
                           7069 ; genPlus
                           7070 ; genPlusIncr
   15FA 01 0E 00           7071 	ld	bc,#_player_location + 0 + 2
                           7072 ; genAssign (pointer)
   15FD 59                 7073 	ld	e,c
   15FE 50                 7074 	ld	d,b
   15FF 3E 98              7075 	ld	a,#0x98
   1601 12                 7076 	ld	(de),a
   1602 13                 7077 	inc	de
   1603 3E 00              7078 	ld	a,#0x00
   1605 12                 7079 	ld	(de),a
                           7080 ;	src\\functions.c 285
                           7081 ; genPointerGet
   1606 59                 7082 	ld	e,c
   1607 50                 7083 	ld	d,b
   1608 1A                 7084 	ld	a,(de)
   1609 4F                 7085 	ld	c,a
   160A 13                 7086 	inc	de
   160B 1A                 7087 	ld	a,(de)
   160C 47                 7088 	ld	b,a
                           7089 ; genCast
                           7090 ; AOP_STK for _detect_edge_sloc0_1_0
   160D F8 06              7091 	lda	hl,6(sp)
   160F 71                 7092 	ld	(hl),c
                           7093 ; genPointerGet
                           7094 ; AOP_STK for _detect_edge_sloc1_1_0
   1610 11 0C 00           7095 	ld	de,#_player_location + 0
   1613 1A                 7096 	ld	a,(de)
   1614 2B                 7097 	dec	hl
   1615 2B                 7098 	dec	hl
   1616 77                 7099 	ld	(hl),a
   1617 13                 7100 	inc	de
   1618 1A                 7101 	ld	a,(de)
   1619 23                 7102 	inc	hl
   161A 77                 7103 	ld	(hl),a
                           7104 ; genCast
                           7105 ; AOP_STK for _detect_edge_sloc1_1_0
   161B 2B                 7106 	dec	hl
   161C 4E                 7107 	ld	c,(hl)
                           7108 ; genIpush
                           7109 ; AOP_STK for _detect_edge_sloc0_1_0
   161D 23                 7110 	inc	hl
   161E 23                 7111 	inc	hl
   161F 7E                 7112 	ld	a,(hl)
   1620 F5                 7113 	push	af
   1621 33                 7114 	inc	sp
                           7115 ; genIpush
   1622 79                 7116 	ld	a,c
   1623 F5                 7117 	push	af
   1624 33                 7118 	inc	sp
                           7119 ; genIpush
   1625 3E 00              7120 	ld	a,#0x00
   1627 F5                 7121 	push	af
   1628 33                 7122 	inc	sp
                           7123 ; genCall
   1629 CD 00 00           7124 	call	_move_sprite
   162C E8 03              7125 	lda	sp,3(sp)
                           7126 ;	src\\functions.c 286
                           7127 ; genRet
   162E 1E 01              7128 	ld	e,#0x01
   1630 C3 95 17           7129 	jp	00109$
                           7130 ; genLabel
   1633                    7131 00102$:
                           7132 ;	src\\functions.c 288
                           7133 ; genCmpGt
                           7134 ; AOP_STK for 
   1633 AF                 7135 	xor	a,a
   1634 3E 98              7136 	ld	a,#0x98
   1636 F8 10              7137 	lda	hl,16(sp)
   1638 9E                 7138 	sbc	a,(hl) ; 2
   1639 D2 C8 16           7139 	jp	nc,00104$
                           7140 ;	src\\functions.c 290
                           7141 ; genIpush
   163C 3E 07              7142 	ld	a,#0x07
   163E F5                 7143 	push	af
   163F 33                 7144 	inc	sp
                           7145 ; genIpush
                           7146 ; AOP_STK for _detect_edge_downdir_1_1
   1640 F8 0A              7147 	lda	hl,10(sp)
   1642 7E                 7148 	ld	a,(hl)
   1643 F5                 7149 	push	af
   1644 33                 7150 	inc	sp
                           7151 ; genCall
   1645 CD 00 00           7152 	call	__muluchar
   1648 4B                 7153 	ld	c,e
   1649 E8 02              7154 	lda	sp,2(sp)
                           7155 ; genPlus
                           7156 ; AOP_STK for _detect_edge_sloc1_1_0
                           7157 ;	genPlusIncr failed
   164B 11 50 00           7158 	ld	de,#_listezone + 0
   164E 69                 7159 	ld	l,c
   164F 26 00              7160 	ld	h,#0x00
   1651 19                 7161 	add	hl,de
   1652 7D                 7162 	ld	a,l
   1653 54                 7163 	ld	d,h
   1654 F8 04              7164 	lda	hl,4(sp)
   1656 22                 7165 	ld	(hl+),a
   1657 72                 7166 	ld	(hl),d
                           7167 ; genIpush
                           7168 ; AOP_STK for _detect_edge_sloc1_1_0
   1658 2B                 7169 	dec	hl
   1659 2A                 7170 	ld	a,(hl+)
   165A 66                 7171 	ld	h,(hl)
   165B 6F                 7172 	ld	l,a
   165C E5                 7173 	push	hl
                           7174 ; genCall
   165D CD F9 11           7175 	call	_set_zone
   1660 E8 02              7176 	lda	sp,2(sp)
                           7177 ;	src\\functions.c 291
                           7178 ; genPlus
                           7179 ; AOP_STK for _detect_edge_sloc1_1_0
                           7180 ; genPlusIncr
                           7181 ;	genPlusIncr failed
   1662 11 0C 00           7182 	ld	de,#_player_location + 0
   1665 21 02 00           7183 	ld	hl,#0x0002
   1668 19                 7184 	add	hl,de
   1669 7D                 7185 	ld	a,l
   166A 54                 7186 	ld	d,h
   166B F8 04              7187 	lda	hl,4(sp)
   166D 22                 7188 	ld	(hl+),a
   166E 72                 7189 	ld	(hl),d
                           7190 ; genAssign (pointer)
                           7191 ; AOP_STK for _detect_edge_sloc1_1_0
   166F 2B                 7192 	dec	hl
   1670 5E                 7193 	ld	e,(hl)
   1671 23                 7194 	inc	hl
   1672 56                 7195 	ld	d,(hl)
   1673 3E 10              7196 	ld	a,#0x10
   1675 12                 7197 	ld	(de),a
   1676 13                 7198 	inc	de
   1677 3E 00              7199 	ld	a,#0x00
   1679 12                 7200 	ld	(de),a
                           7201 ;	src\\functions.c 292
                           7202 ; genPointerGet
                           7203 ; AOP_STK for _detect_edge_sloc1_1_0
   167A 2B                 7204 	dec	hl
   167B 5E                 7205 	ld	e,(hl)
   167C 23                 7206 	inc	hl
   167D 56                 7207 	ld	d,(hl)
   167E 1A                 7208 	ld	a,(de)
   167F 2B                 7209 	dec	hl
   1680 77                 7210 	ld	(hl),a
   1681 13                 7211 	inc	de
   1682 1A                 7212 	ld	a,(de)
   1683 23                 7213 	inc	hl
   1684 77                 7214 	ld	(hl),a
                           7215 ; genPlus
                           7216 ; AOP_STK for _detect_edge_sloc1_1_0
                           7217 ; AOP_STK for _detect_edge_sloc2_1_0
                           7218 ; genPlusIncr
                           7219 ;	genPlusIncr failed
   1685 2B                 7220 	dec	hl
   1686 5E                 7221 	ld	e,(hl)
   1687 23                 7222 	inc	hl
   1688 56                 7223 	ld	d,(hl)
   1689 21 01 00           7224 	ld	hl,#0x0001
   168C 19                 7225 	add	hl,de
   168D 7D                 7226 	ld	a,l
   168E 54                 7227 	ld	d,h
   168F F8 02              7228 	lda	hl,2(sp)
   1691 22                 7229 	ld	(hl+),a
   1692 72                 7230 	ld	(hl),d
                           7231 ; genCast
                           7232 ; AOP_STK for _detect_edge_sloc2_1_0
                           7233 ; genPointerGet
                           7234 ; AOP_STK for _detect_edge_sloc3_1_0
   1693 11 0C 00           7235 	ld	de,#_player_location + 0
   1696 1A                 7236 	ld	a,(de)
   1697 F8 00              7237 	lda	hl,0(sp)
   1699 77                 7238 	ld	(hl),a
   169A 13                 7239 	inc	de
   169B 1A                 7240 	ld	a,(de)
   169C 23                 7241 	inc	hl
                           7242 ; genCast
                           7243 ; AOP_STK for _detect_edge_sloc3_1_0
                           7244 ; genIpush
                           7245 ; AOP_STK for _detect_edge_sloc2_1_0
   169D 22                 7246 	ld	(hl+),a
   169E 7E                 7247 	ld	a,(hl)
   169F F5                 7248 	push	af
   16A0 33                 7249 	inc	sp
                           7250 ; genIpush
                           7251 ; AOP_STK for _detect_edge_sloc3_1_0
   16A1 2B                 7252 	dec	hl
   16A2 2B                 7253 	dec	hl
   16A3 7E                 7254 	ld	a,(hl)
   16A4 F5                 7255 	push	af
   16A5 33                 7256 	inc	sp
                           7257 ; genIpush
   16A6 3E 00              7258 	ld	a,#0x00
   16A8 F5                 7259 	push	af
   16A9 33                 7260 	inc	sp
                           7261 ; genCall
   16AA CD 00 00           7262 	call	_move_sprite
   16AD E8 03              7263 	lda	sp,3(sp)
                           7264 ;	src\\functions.c 293
                           7265 ; genCast
                           7266 ; AOP_STK for _detect_edge_sloc1_1_0
   16AF F8 04              7267 	lda	hl,4(sp)
   16B1 4E                 7268 	ld	c,(hl)
                           7269 ; genIpush
   16B2 79                 7270 	ld	a,c
   16B3 F5                 7271 	push	af
   16B4 33                 7272 	inc	sp
                           7273 ; genIpush
                           7274 ; AOP_STK for _detect_edge_sloc3_1_0
   16B5 F8 01              7275 	lda	hl,1(sp)
   16B7 7E                 7276 	ld	a,(hl)
   16B8 F5                 7277 	push	af
   16B9 33                 7278 	inc	sp
                           7279 ; genIpush
   16BA 3E 00              7280 	ld	a,#0x00
   16BC F5                 7281 	push	af
   16BD 33                 7282 	inc	sp
                           7283 ; genCall
   16BE CD 00 00           7284 	call	_move_sprite
   16C1 E8 03              7285 	lda	sp,3(sp)
                           7286 ;	src\\functions.c 294
                           7287 ; genRet
   16C3 1E 01              7288 	ld	e,#0x01
   16C5 C3 95 17           7289 	jp	00109$
                           7290 ; genLabel
   16C8                    7291 00104$:
                           7292 ;	src\\functions.c 297
                           7293 ; genCmpLt
                           7294 ; AOP_STK for 
   16C8 F8 0F              7295 	lda	hl,15(sp)
   16CA 7E                 7296 	ld	a,(hl)
   16CB FE 08              7297 	cp	#0x08
   16CD D2 2D 17           7298 	jp	nc,00106$
                           7299 ;	src\\functions.c 299
                           7300 ; genIpush
   16D0 3E 07              7301 	ld	a,#0x07
   16D2 F5                 7302 	push	af
   16D3 33                 7303 	inc	sp
                           7304 ; genIpush
                           7305 ; AOP_STK for _detect_edge_leftdir_1_1
   16D4 F8 09              7306 	lda	hl,9(sp)
   16D6 7E                 7307 	ld	a,(hl)
   16D7 F5                 7308 	push	af
   16D8 33                 7309 	inc	sp
                           7310 ; genCall
   16D9 CD 00 00           7311 	call	__muluchar
   16DC 4B                 7312 	ld	c,e
   16DD E8 02              7313 	lda	sp,2(sp)
                           7314 ; genPlus
                           7315 ; AOP_STK for _detect_edge_sloc3_1_0
                           7316 ;	genPlusIncr failed
   16DF 11 50 00           7317 	ld	de,#_listezone + 0
   16E2 69                 7318 	ld	l,c
   16E3 26 00              7319 	ld	h,#0x00
   16E5 19                 7320 	add	hl,de
   16E6 7D                 7321 	ld	a,l
   16E7 54                 7322 	ld	d,h
   16E8 F8 00              7323 	lda	hl,0(sp)
   16EA 22                 7324 	ld	(hl+),a
   16EB 72                 7325 	ld	(hl),d
                           7326 ; genIpush
                           7327 ; AOP_STK for _detect_edge_sloc3_1_0
   16EC 2B                 7328 	dec	hl
   16ED 2A                 7329 	ld	a,(hl+)
   16EE 66                 7330 	ld	h,(hl)
   16EF 6F                 7331 	ld	l,a
   16F0 E5                 7332 	push	hl
                           7333 ; genCall
   16F1 CD F9 11           7334 	call	_set_zone
   16F4 E8 02              7335 	lda	sp,2(sp)
                           7336 ;	src\\functions.c 300
                           7337 ; genAssign (pointer)
   16F6 11 0C 00           7338 	ld	de,#_player_location + 0
   16F9 3E A0              7339 	ld	a,#0xA0
   16FB 12                 7340 	ld	(de),a
   16FC 13                 7341 	inc	de
   16FD 3E 00              7342 	ld	a,#0x00
   16FF 12                 7343 	ld	(de),a
                           7344 ;	src\\functions.c 301
                           7345 ; genPlus
                           7346 ; genPlusIncr
   1700 11 0E 00           7347 	ld	de,#_player_location + 0 + 2
                           7348 ; genPointerGet
                           7349 ; AOP_STK for _detect_edge_sloc3_1_0
                           7350 ; Removed redundent load
                           7351 ; Removed redundent load
   1703 1A                 7352 	ld	a,(de)
   1704 F8 00              7353 	lda	hl,0(sp)
   1706 77                 7354 	ld	(hl),a
   1707 13                 7355 	inc	de
   1708 1A                 7356 	ld	a,(de)
   1709 23                 7357 	inc	hl
   170A 77                 7358 	ld	(hl),a
                           7359 ; genCast
                           7360 ; AOP_STK for _detect_edge_sloc3_1_0
                           7361 ; genPointerGet
                           7362 ; AOP_STK for _detect_edge_sloc2_1_0
   170B 11 0C 00           7363 	ld	de,#_player_location + 0
   170E 1A                 7364 	ld	a,(de)
   170F 23                 7365 	inc	hl
   1710 77                 7366 	ld	(hl),a
   1711 13                 7367 	inc	de
   1712 1A                 7368 	ld	a,(de)
   1713 23                 7369 	inc	hl
   1714 77                 7370 	ld	(hl),a
                           7371 ; genCast
                           7372 ; AOP_STK for _detect_edge_sloc2_1_0
   1715 2B                 7373 	dec	hl
   1716 4E                 7374 	ld	c,(hl)
                           7375 ; genIpush
                           7376 ; AOP_STK for _detect_edge_sloc3_1_0
   1717 2B                 7377 	dec	hl
   1718 2B                 7378 	dec	hl
   1719 7E                 7379 	ld	a,(hl)
   171A F5                 7380 	push	af
   171B 33                 7381 	inc	sp
                           7382 ; genIpush
   171C 79                 7383 	ld	a,c
   171D F5                 7384 	push	af
   171E 33                 7385 	inc	sp
                           7386 ; genIpush
   171F 3E 00              7387 	ld	a,#0x00
   1721 F5                 7388 	push	af
   1722 33                 7389 	inc	sp
                           7390 ; genCall
   1723 CD 00 00           7391 	call	_move_sprite
   1726 E8 03              7392 	lda	sp,3(sp)
                           7393 ;	src\\functions.c 302
                           7394 ; genRet
   1728 1E 01              7395 	ld	e,#0x01
   172A C3 95 17           7396 	jp	00109$
                           7397 ; genLabel
   172D                    7398 00106$:
                           7399 ;	src\\functions.c 304
                           7400 ; genCmpGt
                           7401 ; AOP_STK for 
   172D AF                 7402 	xor	a,a
   172E 3E A0              7403 	ld	a,#0xA0
   1730 F8 0F              7404 	lda	hl,15(sp)
   1732 9E                 7405 	sbc	a,(hl) ; 2
   1733 D2 93 17           7406 	jp	nc,00108$
                           7407 ;	src\\functions.c 306
                           7408 ; genIpush
   1736 3E 07              7409 	ld	a,#0x07
   1738 F5                 7410 	push	af
   1739 33                 7411 	inc	sp
                           7412 ; genIpush
                           7413 ; AOP_STK for _detect_edge_rightdir_1_1
   173A F8 08              7414 	lda	hl,8(sp)
   173C 7E                 7415 	ld	a,(hl)
   173D F5                 7416 	push	af
   173E 33                 7417 	inc	sp
                           7418 ; genCall
   173F CD 00 00           7419 	call	__muluchar
   1742 4B                 7420 	ld	c,e
   1743 E8 02              7421 	lda	sp,2(sp)
                           7422 ; genPlus
                           7423 ; AOP_STK for _detect_edge_sloc3_1_0
                           7424 ;	genPlusIncr failed
   1745 11 50 00           7425 	ld	de,#_listezone + 0
   1748 69                 7426 	ld	l,c
   1749 26 00              7427 	ld	h,#0x00
   174B 19                 7428 	add	hl,de
   174C 7D                 7429 	ld	a,l
   174D 54                 7430 	ld	d,h
   174E F8 00              7431 	lda	hl,0(sp)
   1750 22                 7432 	ld	(hl+),a
   1751 72                 7433 	ld	(hl),d
                           7434 ; genIpush
                           7435 ; AOP_STK for _detect_edge_sloc3_1_0
   1752 2B                 7436 	dec	hl
   1753 2A                 7437 	ld	a,(hl+)
   1754 66                 7438 	ld	h,(hl)
   1755 6F                 7439 	ld	l,a
   1756 E5                 7440 	push	hl
                           7441 ; genCall
   1757 CD F9 11           7442 	call	_set_zone
   175A E8 02              7443 	lda	sp,2(sp)
                           7444 ;	src\\functions.c 307
                           7445 ; genAssign (pointer)
   175C 11 0C 00           7446 	ld	de,#_player_location + 0
   175F 3E 08              7447 	ld	a,#0x08
   1761 12                 7448 	ld	(de),a
   1762 13                 7449 	inc	de
   1763 3E 00              7450 	ld	a,#0x00
   1765 12                 7451 	ld	(de),a
                           7452 ;	src\\functions.c 308
                           7453 ; genPlus
                           7454 ; genPlusIncr
   1766 11 0E 00           7455 	ld	de,#_player_location + 0 + 2
                           7456 ; genPointerGet
                           7457 ; AOP_STK for _detect_edge_sloc3_1_0
                           7458 ; Removed redundent load
                           7459 ; Removed redundent load
   1769 1A                 7460 	ld	a,(de)
   176A F8 00              7461 	lda	hl,0(sp)
   176C 77                 7462 	ld	(hl),a
   176D 13                 7463 	inc	de
   176E 1A                 7464 	ld	a,(de)
   176F 23                 7465 	inc	hl
   1770 77                 7466 	ld	(hl),a
                           7467 ; genCast
                           7468 ; AOP_STK for _detect_edge_sloc3_1_0
                           7469 ; genPointerGet
                           7470 ; AOP_STK for _detect_edge_sloc2_1_0
   1771 11 0C 00           7471 	ld	de,#_player_location + 0
   1774 1A                 7472 	ld	a,(de)
   1775 23                 7473 	inc	hl
   1776 77                 7474 	ld	(hl),a
   1777 13                 7475 	inc	de
   1778 1A                 7476 	ld	a,(de)
   1779 23                 7477 	inc	hl
   177A 77                 7478 	ld	(hl),a
                           7479 ; genCast
                           7480 ; AOP_STK for _detect_edge_sloc2_1_0
   177B 2B                 7481 	dec	hl
   177C 4E                 7482 	ld	c,(hl)
                           7483 ; genIpush
                           7484 ; AOP_STK for _detect_edge_sloc3_1_0
   177D 2B                 7485 	dec	hl
   177E 2B                 7486 	dec	hl
   177F 7E                 7487 	ld	a,(hl)
   1780 F5                 7488 	push	af
   1781 33                 7489 	inc	sp
                           7490 ; genIpush
   1782 79                 7491 	ld	a,c
   1783 F5                 7492 	push	af
   1784 33                 7493 	inc	sp
                           7494 ; genIpush
   1785 3E 00              7495 	ld	a,#0x00
   1787 F5                 7496 	push	af
   1788 33                 7497 	inc	sp
                           7498 ; genCall
   1789 CD 00 00           7499 	call	_move_sprite
   178C E8 03              7500 	lda	sp,3(sp)
                           7501 ;	src\\functions.c 309
                           7502 ; genRet
   178E 1E 01              7503 	ld	e,#0x01
   1790 C3 95 17           7504 	jp	00109$
                           7505 ; genLabel
   1793                    7506 00108$:
                           7507 ;	src\\functions.c 313
                           7508 ; genRet
   1793 1E 00              7509 	ld	e,#0x00
                           7510 ; genLabel
   1795                    7511 00109$:
                           7512 ; genEndFunction
   1795 E8 0B              7513 	lda	sp,11(sp)
   1797 C1                 7514 	pop	bc
   1798 C9                 7515 	ret
   1799                    7516 ___detect_edge_end:
                           7517 ;	src\\functions.c 316
                           7518 ; genLabel
                           7519 ; genFunction
                           7520 ;	---------------------------------
                           7521 ; Function chr_to_hex
                           7522 ; ---------------------------------
   1799                    7523 ___chr_to_hex_start:
   1799                    7524 _chr_to_hex:
                           7525 	
                           7526 ;	src\\functions.c 317
                           7527 ; genCmpEq
                           7528 ; AOP_STK for 
   1799 F8 02              7529 	lda	hl,2(sp)
   179B 7E                 7530 	ld	a,(hl) ; 2
   179C FE 20              7531 	cp	a,#0x20
                           7532 ; Rule 5
   179E CA F6 18           7533 	jp	z,00127$
   17A1                    7534 00158$:
                           7535 ; genCmpEq
                           7536 ; AOP_STK for 
   17A1 F8 02              7537 	lda	hl,2(sp)
   17A3 7E                 7538 	ld	a,(hl) ; 2
   17A4 FE 41              7539 	cp	a,#0x41
                           7540 ; Rule 5
   17A6 CA 74 18           7541 	jp	z,00101$
   17A9                    7542 00159$:
                           7543 ; genCmpEq
                           7544 ; AOP_STK for 
   17A9 F8 02              7545 	lda	hl,2(sp)
   17AB 7E                 7546 	ld	a,(hl) ; 2
   17AC FE 42              7547 	cp	a,#0x42
                           7548 ; Rule 5
   17AE CA 79 18           7549 	jp	z,00102$
   17B1                    7550 00160$:
                           7551 ; genCmpEq
                           7552 ; AOP_STK for 
   17B1 F8 02              7553 	lda	hl,2(sp)
   17B3 7E                 7554 	ld	a,(hl) ; 2
   17B4 FE 43              7555 	cp	a,#0x43
                           7556 ; Rule 5
   17B6 CA 7E 18           7557 	jp	z,00103$
   17B9                    7558 00161$:
                           7559 ; genCmpEq
                           7560 ; AOP_STK for 
   17B9 F8 02              7561 	lda	hl,2(sp)
   17BB 7E                 7562 	ld	a,(hl) ; 2
   17BC FE 44              7563 	cp	a,#0x44
                           7564 ; Rule 5
   17BE CA 83 18           7565 	jp	z,00104$
   17C1                    7566 00162$:
                           7567 ; genCmpEq
                           7568 ; AOP_STK for 
   17C1 F8 02              7569 	lda	hl,2(sp)
   17C3 7E                 7570 	ld	a,(hl) ; 2
   17C4 FE 45              7571 	cp	a,#0x45
                           7572 ; Rule 5
   17C6 CA 88 18           7573 	jp	z,00105$
   17C9                    7574 00163$:
                           7575 ; genCmpEq
                           7576 ; AOP_STK for 
   17C9 F8 02              7577 	lda	hl,2(sp)
   17CB 7E                 7578 	ld	a,(hl) ; 2
   17CC FE 46              7579 	cp	a,#0x46
                           7580 ; Rule 5
   17CE CA 8D 18           7581 	jp	z,00106$
   17D1                    7582 00164$:
                           7583 ; genCmpEq
                           7584 ; AOP_STK for 
   17D1 F8 02              7585 	lda	hl,2(sp)
   17D3 7E                 7586 	ld	a,(hl) ; 2
   17D4 FE 47              7587 	cp	a,#0x47
                           7588 ; Rule 5
   17D6 CA 92 18           7589 	jp	z,00107$
   17D9                    7590 00165$:
                           7591 ; genCmpEq
                           7592 ; AOP_STK for 
   17D9 F8 02              7593 	lda	hl,2(sp)
   17DB 7E                 7594 	ld	a,(hl) ; 2
   17DC FE 48              7595 	cp	a,#0x48
                           7596 ; Rule 5
   17DE CA 97 18           7597 	jp	z,00108$
   17E1                    7598 00166$:
                           7599 ; genCmpEq
                           7600 ; AOP_STK for 
   17E1 F8 02              7601 	lda	hl,2(sp)
   17E3 7E                 7602 	ld	a,(hl) ; 2
   17E4 FE 49              7603 	cp	a,#0x49
                           7604 ; Rule 5
   17E6 CA 9C 18           7605 	jp	z,00109$
   17E9                    7606 00167$:
                           7607 ; genCmpEq
                           7608 ; AOP_STK for 
   17E9 F8 02              7609 	lda	hl,2(sp)
   17EB 7E                 7610 	ld	a,(hl) ; 2
   17EC FE 4A              7611 	cp	a,#0x4A
                           7612 ; Rule 5
   17EE CA A1 18           7613 	jp	z,00110$
   17F1                    7614 00168$:
                           7615 ; genCmpEq
                           7616 ; AOP_STK for 
   17F1 F8 02              7617 	lda	hl,2(sp)
   17F3 7E                 7618 	ld	a,(hl) ; 2
   17F4 FE 4B              7619 	cp	a,#0x4B
                           7620 ; Rule 5
   17F6 CA A6 18           7621 	jp	z,00111$
   17F9                    7622 00169$:
                           7623 ; genCmpEq
                           7624 ; AOP_STK for 
   17F9 F8 02              7625 	lda	hl,2(sp)
   17FB 7E                 7626 	ld	a,(hl) ; 2
   17FC FE 4C              7627 	cp	a,#0x4C
                           7628 ; Rule 5
   17FE CA AB 18           7629 	jp	z,00112$
   1801                    7630 00170$:
                           7631 ; genCmpEq
                           7632 ; AOP_STK for 
   1801 F8 02              7633 	lda	hl,2(sp)
   1803 7E                 7634 	ld	a,(hl) ; 2
   1804 FE 4D              7635 	cp	a,#0x4D
                           7636 ; Rule 5
   1806 CA B0 18           7637 	jp	z,00113$
   1809                    7638 00171$:
                           7639 ; genCmpEq
                           7640 ; AOP_STK for 
   1809 F8 02              7641 	lda	hl,2(sp)
   180B 7E                 7642 	ld	a,(hl) ; 2
   180C FE 4E              7643 	cp	a,#0x4E
                           7644 ; Rule 5
   180E CA B5 18           7645 	jp	z,00114$
   1811                    7646 00172$:
                           7647 ; genCmpEq
                           7648 ; AOP_STK for 
   1811 F8 02              7649 	lda	hl,2(sp)
   1813 7E                 7650 	ld	a,(hl) ; 2
   1814 FE 4F              7651 	cp	a,#0x4F
                           7652 ; Rule 5
   1816 CA BA 18           7653 	jp	z,00115$
   1819                    7654 00173$:
                           7655 ; genCmpEq
                           7656 ; AOP_STK for 
   1819 F8 02              7657 	lda	hl,2(sp)
   181B 7E                 7658 	ld	a,(hl) ; 2
   181C FE 50              7659 	cp	a,#0x50
                           7660 ; Rule 5
   181E CA BF 18           7661 	jp	z,00116$
   1821                    7662 00174$:
                           7663 ; genCmpEq
                           7664 ; AOP_STK for 
   1821 F8 02              7665 	lda	hl,2(sp)
   1823 7E                 7666 	ld	a,(hl) ; 2
   1824 FE 51              7667 	cp	a,#0x51
                           7668 ; Rule 5
   1826 CA C4 18           7669 	jp	z,00117$
   1829                    7670 00175$:
                           7671 ; genCmpEq
                           7672 ; AOP_STK for 
   1829 F8 02              7673 	lda	hl,2(sp)
   182B 7E                 7674 	ld	a,(hl) ; 2
   182C FE 52              7675 	cp	a,#0x52
                           7676 ; Rule 5
   182E CA C9 18           7677 	jp	z,00118$
   1831                    7678 00176$:
                           7679 ; genCmpEq
                           7680 ; AOP_STK for 
   1831 F8 02              7681 	lda	hl,2(sp)
   1833 7E                 7682 	ld	a,(hl) ; 2
   1834 FE 53              7683 	cp	a,#0x53
                           7684 ; Rule 5
   1836 CA CE 18           7685 	jp	z,00119$
   1839                    7686 00177$:
                           7687 ; genCmpEq
                           7688 ; AOP_STK for 
   1839 F8 02              7689 	lda	hl,2(sp)
   183B 7E                 7690 	ld	a,(hl) ; 2
   183C FE 54              7691 	cp	a,#0x54
                           7692 ; Rule 5
   183E CA D3 18           7693 	jp	z,00120$
   1841                    7694 00178$:
                           7695 ; genCmpEq
                           7696 ; AOP_STK for 
   1841 F8 02              7697 	lda	hl,2(sp)
   1843 7E                 7698 	ld	a,(hl) ; 2
   1844 FE 55              7699 	cp	a,#0x55
                           7700 ; Rule 5
   1846 CA D8 18           7701 	jp	z,00121$
   1849                    7702 00179$:
                           7703 ; genCmpEq
                           7704 ; AOP_STK for 
   1849 F8 02              7705 	lda	hl,2(sp)
   184B 7E                 7706 	ld	a,(hl) ; 2
   184C FE 56              7707 	cp	a,#0x56
                           7708 ; Rule 5
   184E CA DD 18           7709 	jp	z,00122$
   1851                    7710 00180$:
                           7711 ; genCmpEq
                           7712 ; AOP_STK for 
   1851 F8 02              7713 	lda	hl,2(sp)
   1853 7E                 7714 	ld	a,(hl) ; 2
   1854 FE 57              7715 	cp	a,#0x57
                           7716 ; Rule 5
   1856 CA E2 18           7717 	jp	z,00123$
   1859                    7718 00181$:
                           7719 ; genCmpEq
                           7720 ; AOP_STK for 
   1859 F8 02              7721 	lda	hl,2(sp)
   185B 7E                 7722 	ld	a,(hl) ; 2
   185C FE 58              7723 	cp	a,#0x58
                           7724 ; Rule 5
   185E CA E7 18           7725 	jp	z,00124$
   1861                    7726 00182$:
                           7727 ; genCmpEq
                           7728 ; AOP_STK for 
   1861 F8 02              7729 	lda	hl,2(sp)
   1863 7E                 7730 	ld	a,(hl) ; 2
   1864 FE 59              7731 	cp	a,#0x59
                           7732 ; Rule 5
   1866 CA EC 18           7733 	jp	z,00125$
   1869                    7734 00183$:
                           7735 ; genCmpEq
                           7736 ; AOP_STK for 
   1869 F8 02              7737 	lda	hl,2(sp)
   186B 7E                 7738 	ld	a,(hl) ; 2
   186C FE 5A              7739 	cp	a,#0x5A
                           7740 ; Rule 5
   186E CA F1 18           7741 	jp	z,00126$
   1871                    7742 00184$:
                           7743 ; genGoto
   1871 C3 F8 18           7744 	jp	00129$
                           7745 ;	src\\functions.c 318
                           7746 ; genLabel
   1874                    7747 00101$:
                           7748 ; genRet
   1874 1E 0C              7749 	ld	e,#0x0C
   1876 C3 F8 18           7750 	jp	00129$
                           7751 ;	src\\functions.c 319
                           7752 ; genLabel
   1879                    7753 00102$:
                           7754 ; genRet
   1879 1E 0D              7755 	ld	e,#0x0D
   187B C3 F8 18           7756 	jp	00129$
                           7757 ;	src\\functions.c 320
                           7758 ; genLabel
   187E                    7759 00103$:
                           7760 ; genRet
   187E 1E 0E              7761 	ld	e,#0x0E
   1880 C3 F8 18           7762 	jp	00129$
                           7763 ;	src\\functions.c 321
                           7764 ; genLabel
   1883                    7765 00104$:
                           7766 ; genRet
   1883 1E 0F              7767 	ld	e,#0x0F
   1885 C3 F8 18           7768 	jp	00129$
                           7769 ;	src\\functions.c 322
                           7770 ; genLabel
   1888                    7771 00105$:
                           7772 ; genRet
   1888 1E 10              7773 	ld	e,#0x10
   188A C3 F8 18           7774 	jp	00129$
                           7775 ;	src\\functions.c 323
                           7776 ; genLabel
   188D                    7777 00106$:
                           7778 ; genRet
   188D 1E 11              7779 	ld	e,#0x11
   188F C3 F8 18           7780 	jp	00129$
                           7781 ;	src\\functions.c 324
                           7782 ; genLabel
   1892                    7783 00107$:
                           7784 ; genRet
   1892 1E 12              7785 	ld	e,#0x12
   1894 C3 F8 18           7786 	jp	00129$
                           7787 ;	src\\functions.c 325
                           7788 ; genLabel
   1897                    7789 00108$:
                           7790 ; genRet
   1897 1E 13              7791 	ld	e,#0x13
   1899 C3 F8 18           7792 	jp	00129$
                           7793 ;	src\\functions.c 326
                           7794 ; genLabel
   189C                    7795 00109$:
                           7796 ; genRet
   189C 1E 14              7797 	ld	e,#0x14
   189E C3 F8 18           7798 	jp	00129$
                           7799 ;	src\\functions.c 327
                           7800 ; genLabel
   18A1                    7801 00110$:
                           7802 ; genRet
   18A1 1E 15              7803 	ld	e,#0x15
   18A3 C3 F8 18           7804 	jp	00129$
                           7805 ;	src\\functions.c 328
                           7806 ; genLabel
   18A6                    7807 00111$:
                           7808 ; genRet
   18A6 1E 16              7809 	ld	e,#0x16
   18A8 C3 F8 18           7810 	jp	00129$
                           7811 ;	src\\functions.c 329
                           7812 ; genLabel
   18AB                    7813 00112$:
                           7814 ; genRet
   18AB 1E 17              7815 	ld	e,#0x17
   18AD C3 F8 18           7816 	jp	00129$
                           7817 ;	src\\functions.c 330
                           7818 ; genLabel
   18B0                    7819 00113$:
                           7820 ; genRet
   18B0 1E 18              7821 	ld	e,#0x18
   18B2 C3 F8 18           7822 	jp	00129$
                           7823 ;	src\\functions.c 331
                           7824 ; genLabel
   18B5                    7825 00114$:
                           7826 ; genRet
   18B5 1E 19              7827 	ld	e,#0x19
   18B7 C3 F8 18           7828 	jp	00129$
                           7829 ;	src\\functions.c 332
                           7830 ; genLabel
   18BA                    7831 00115$:
                           7832 ; genRet
   18BA 1E 1A              7833 	ld	e,#0x1A
   18BC C3 F8 18           7834 	jp	00129$
                           7835 ;	src\\functions.c 333
                           7836 ; genLabel
   18BF                    7837 00116$:
                           7838 ; genRet
   18BF 1E 1B              7839 	ld	e,#0x1B
   18C1 C3 F8 18           7840 	jp	00129$
                           7841 ;	src\\functions.c 334
                           7842 ; genLabel
   18C4                    7843 00117$:
                           7844 ; genRet
   18C4 1E 1C              7845 	ld	e,#0x1C
   18C6 C3 F8 18           7846 	jp	00129$
                           7847 ;	src\\functions.c 335
                           7848 ; genLabel
   18C9                    7849 00118$:
                           7850 ; genRet
   18C9 1E 1D              7851 	ld	e,#0x1D
   18CB C3 F8 18           7852 	jp	00129$
                           7853 ;	src\\functions.c 336
                           7854 ; genLabel
   18CE                    7855 00119$:
                           7856 ; genRet
   18CE 1E 1E              7857 	ld	e,#0x1E
   18D0 C3 F8 18           7858 	jp	00129$
                           7859 ;	src\\functions.c 337
                           7860 ; genLabel
   18D3                    7861 00120$:
                           7862 ; genRet
   18D3 1E 1F              7863 	ld	e,#0x1F
   18D5 C3 F8 18           7864 	jp	00129$
                           7865 ;	src\\functions.c 338
                           7866 ; genLabel
   18D8                    7867 00121$:
                           7868 ; genRet
   18D8 1E 20              7869 	ld	e,#0x20
   18DA C3 F8 18           7870 	jp	00129$
                           7871 ;	src\\functions.c 339
                           7872 ; genLabel
   18DD                    7873 00122$:
                           7874 ; genRet
   18DD 1E 21              7875 	ld	e,#0x21
   18DF C3 F8 18           7876 	jp	00129$
                           7877 ;	src\\functions.c 340
                           7878 ; genLabel
   18E2                    7879 00123$:
                           7880 ; genRet
   18E2 1E 22              7881 	ld	e,#0x22
   18E4 C3 F8 18           7882 	jp	00129$
                           7883 ;	src\\functions.c 341
                           7884 ; genLabel
   18E7                    7885 00124$:
                           7886 ; genRet
   18E7 1E 23              7887 	ld	e,#0x23
   18E9 C3 F8 18           7888 	jp	00129$
                           7889 ;	src\\functions.c 342
                           7890 ; genLabel
   18EC                    7891 00125$:
                           7892 ; genRet
   18EC 1E 24              7893 	ld	e,#0x24
   18EE C3 F8 18           7894 	jp	00129$
                           7895 ;	src\\functions.c 343
                           7896 ; genLabel
   18F1                    7897 00126$:
                           7898 ; genRet
   18F1 1E 25              7899 	ld	e,#0x25
   18F3 C3 F8 18           7900 	jp	00129$
                           7901 ;	src\\functions.c 344
                           7902 ; genLabel
   18F6                    7903 00127$:
                           7904 ; genRet
   18F6 1E 26              7905 	ld	e,#0x26
                           7906 ;	src\\functions.c 346
                           7907 ; genLabel
   18F8                    7908 00129$:
                           7909 ; genEndFunction
                           7910 	
   18F8 C9                 7911 	ret
   18F9                    7912 ___chr_to_hex_end:
                           7913 ;	src\\functions.c 350
                           7914 ; genLabel
                           7915 ; genFunction
                           7916 ;	---------------------------------
                           7917 ; Function print_to_win
                           7918 ; ---------------------------------
   18F9                    7919 ___print_to_win_start:
   18F9                    7920 _print_to_win:
   18F9 C5                 7921 	push	bc
   18FA E8 FB              7922 	lda	sp,-5(sp)
                           7923 ;	src\\functions.c 351
                           7924 ; genIpush
   18FC 21 3C 00           7925 	ld	hl,#0x003C
   18FF E5                 7926 	push	hl
                           7927 ; genCall
   1900 CD 00 00           7928 	call	banked_call
   1903 D9 08              7929 	.dw	_malloc
   1905 00 00              7930 	.dw 0	; PENDING: bank support
                           7931 ; AOP_STK for _print_to_win_hex_data_1_1
   1907 F8 06              7932 	lda	hl,6(sp)
   1909 72                 7933 	ld	(hl),d
   190A 2B                 7934 	dec	hl
   190B 73                 7935 	ld	(hl),e
   190C E8 02              7936 	lda	sp,2(sp)
                           7937 ;	src\\functions.c 352
                           7938 ; genAssign
   190E 0E 00              7939 	ld	c,#0x00
                           7940 ;	src\\functions.c 354
                           7941 ; genLabel
   1910                    7942 00101$:
                           7943 ; genPlus
                           7944 ; AOP_STK for 
                           7945 ;	genPlusIncr failed
   1910 F8 09              7946 	lda	hl,9(sp)
   1912 5E                 7947 	ld	e,(hl)
   1913 23                 7948 	inc	hl
   1914 56                 7949 	ld	d,(hl)
   1915 69                 7950 	ld	l,c
   1916 26 00              7951 	ld	h,#0x00
   1918 19                 7952 	add	hl,de
   1919 5D                 7953 	ld	e,l
   191A 54                 7954 	ld	d,h
                           7955 ; genPointerGet
                           7956 ; AOP_STK for _print_to_win_sloc0_1_0
   191B 1A                 7957 	ld	a,(de)
   191C F8 02              7958 	lda	hl,2(sp)
   191E 77                 7959 	ld	(hl),a
                           7960 ; genCmpEq
                           7961 ; AOP_STK for _print_to_win_sloc0_1_0
   191F 7E                 7962 	ld	a,(hl)
   1920 B7                 7963 	or	a,a
                           7964 ; Rule 5
   1921 CA 48 19           7965 	jp	z,00103$
   1924                    7966 00108$:
                           7967 ;	src\\functions.c 355
                           7968 ; genPlus
                           7969 ; AOP_STK for _print_to_win_hex_data_1_1
                           7970 ; AOP_STK for _print_to_win_sloc1_1_0
                           7971 ;	genPlusIncr failed
   1924 F8 03              7972 	lda	hl,3(sp)
   1926 5E                 7973 	ld	e,(hl)
   1927 23                 7974 	inc	hl
   1928 56                 7975 	ld	d,(hl)
   1929 69                 7976 	ld	l,c
   192A 26 00              7977 	ld	h,#0x00
   192C 19                 7978 	add	hl,de
   192D 7D                 7979 	ld	a,l
   192E 54                 7980 	ld	d,h
   192F F8 00              7981 	lda	hl,0(sp)
   1931 22                 7982 	ld	(hl+),a
   1932 72                 7983 	ld	(hl),d
                           7984 ; genIpush
                           7985 ; AOP_STK for _print_to_win_sloc0_1_0
   1933 23                 7986 	inc	hl
   1934 7E                 7987 	ld	a,(hl)
   1935 F5                 7988 	push	af
   1936 33                 7989 	inc	sp
                           7990 ; genCall
   1937 CD 99 17           7991 	call	_chr_to_hex
   193A 43                 7992 	ld	b,e
   193B E8 01              7993 	lda	sp,1(sp)
                           7994 ; genAssign (pointer)
                           7995 ; AOP_STK for _print_to_win_sloc1_1_0
   193D F8 00              7996 	lda	hl,0(sp)
   193F 5E                 7997 	ld	e,(hl)
   1940 23                 7998 	inc	hl
   1941 56                 7999 	ld	d,(hl)
   1942 78                 8000 	ld	a,b
   1943 12                 8001 	ld	(de),a
                           8002 ;	src\\functions.c 356
                           8003 ; genPlus
                           8004 ; genPlusIncr
   1944 0C                 8005 	inc	c
                           8006 ; genGoto
   1945 C3 10 19           8007 	jp	00101$
                           8008 ; genLabel
   1948                    8009 00103$:
                           8010 ;	src\\functions.c 358
                           8011 ; genIpush
                           8012 ; AOP_STK for _print_to_win_hex_data_1_1
   1948 F8 03              8013 	lda	hl,3(sp)
   194A 2A                 8014 	ld	a,(hl+)
   194B 66                 8015 	ld	h,(hl)
   194C 6F                 8016 	ld	l,a
   194D E5                 8017 	push	hl
                           8018 ; genIpush
   194E 3E 03              8019 	ld	a,#0x03
   1950 F5                 8020 	push	af
   1951 33                 8021 	inc	sp
                           8022 ; genIpush
   1952 3E 14              8023 	ld	a,#0x14
   1954 F5                 8024 	push	af
   1955 33                 8025 	inc	sp
                           8026 ; genIpush
   1956 3E 00              8027 	ld	a,#0x00
   1958 F5                 8028 	push	af
   1959 33                 8029 	inc	sp
                           8030 ; genIpush
   195A 3E 00              8031 	ld	a,#0x00
   195C F5                 8032 	push	af
   195D 33                 8033 	inc	sp
                           8034 ; genCall
   195E CD 00 00           8035 	call	_set_win_tiles
   1961 E8 06              8036 	lda	sp,6(sp)
                           8037 ;	src\\functions.c 359
                           8038 ; genIpush
                           8039 ; AOP_STK for 
   1963 F8 0B              8040 	lda	hl,11(sp)
   1965 7E                 8041 	ld	a,(hl)
   1966 F5                 8042 	push	af
   1967 33                 8043 	inc	sp
                           8044 ; genIpush
   1968 3E 07              8045 	ld	a,#0x07
   196A F5                 8046 	push	af
   196B 33                 8047 	inc	sp
                           8048 ; genCall
   196C CD 00 00           8049 	call	_move_win
   196F E8 02              8050 	lda	sp,2(sp)
                           8051 ;	src\\functions.c 360
                           8052 ; genOr
                           8053 ; AOP_SFR for _LCDC_REG
                           8054 ; Type res[4] = l[4]&r[1]
                           8055 ; Size res[1] = l[1]&r[1]
   1971 F0 00              8056 	ldh	a,(_LCDC_REG+0) ; x
   1973 F6 20              8057 	or	a,#0x20
   1975 E0 00              8058 	ldh	(_LCDC_REG+0),a
                           8059 ;	src\\functions.c 361
                           8060 ; genOr
                           8061 ; AOP_SFR for _LCDC_REG
                           8062 ; Type res[4] = l[4]&r[1]
                           8063 ; Size res[1] = l[1]&r[1]
   1977 F0 00              8064 	ldh	a,(_LCDC_REG+0) ; x
   1979 F6 01              8065 	or	a,#0x01
   197B E0 00              8066 	ldh	(_LCDC_REG+0),a
                           8067 ;	src\\functions.c 362
                           8068 ; genOr
                           8069 ; AOP_SFR for _LCDC_REG
                           8070 ; Type res[4] = l[4]&r[1]
                           8071 ; Size res[1] = l[1]&r[1]
   197D F0 00              8072 	ldh	a,(_LCDC_REG+0) ; x
   197F F6 80              8073 	or	a,#0x80
   1981 E0 00              8074 	ldh	(_LCDC_REG+0),a
                           8075 ;	src\\functions.c 364
                           8076 ; genAssign
                           8077 ; AOP_STK for _print_to_win_hex_data_1_1
   1983 F8 03              8078 	lda	hl,3(sp)
   1985 4E                 8079 	ld	c,(hl)
   1986 23                 8080 	inc	hl
   1987 46                 8081 	ld	b,(hl)
                           8082 ; genIpush
   1988 C5                 8083 	push	bc
                           8084 ; genCall
   1989 CD 04 0B           8085 	call	_free
   198C E8 02              8086 	lda	sp,2(sp)
                           8087 ; genLabel
   198E                    8088 00104$:
                           8089 ; genEndFunction
   198E E8 05              8090 	lda	sp,5(sp)
   1990 C1                 8091 	pop	bc
   1991 C9                 8092 	ret
   1992                    8093 ___print_to_win_end:
                           8094 ;	src\\functions.c 367
                           8095 ; genLabel
                           8096 ; genFunction
                           8097 ;	---------------------------------
                           8098 ; Function hide_win_text
                           8099 ; ---------------------------------
   1992                    8100 ___hide_win_text_start:
   1992                    8101 _hide_win_text:
                           8102 	
                           8103 ;	src\\functions.c 368
                           8104 ; genIpush
   1992 3E 00              8105 	ld	a,#0x00
   1994 F5                 8106 	push	af
   1995 33                 8107 	inc	sp
                           8108 ; genIpush
   1996 3E 3C              8109 	ld	a,#0x3C
   1998 F5                 8110 	push	af
   1999 33                 8111 	inc	sp
                           8112 ; genIpush
                           8113 ; AOP_HL for _blanktext
   199A 21 1E 00           8114 	ld	hl,#_blanktext + 0
   199D 2A                 8115 	ld	a,(hl+)
   199E 66                 8116 	ld	h,(hl)
   199F 6F                 8117 	ld	l,a
   19A0 E5                 8118 	push	hl
                           8119 ; genCall
   19A1 CD F9 18           8120 	call	_print_to_win
   19A4 E8 04              8121 	lda	sp,4(sp)
                           8122 ;	src\\functions.c 369
                           8123 ; genAnd
                           8124 ; AOP_SFR for _LCDC_REG
   19A6 F0 00              8125 	ldh	a,(_LCDC_REG+0) ; x
   19A8 E6 DF              8126 	and	a,#0xDF
   19AA E0 00              8127 	ldh	(_LCDC_REG+0),a
                           8128 ; genLabel
   19AC                    8129 00101$:
                           8130 ; genEndFunction
                           8131 	
   19AC C9                 8132 	ret
   19AD                    8133 ___hide_win_text_end:
                           8134 ;	src\\functions.c 372
                           8135 ; genLabel
                           8136 ; genFunction
                           8137 ;	---------------------------------
                           8138 ; Function show_message
                           8139 ; ---------------------------------
   19AD                    8140 ___show_message_start:
   19AD                    8141 _show_message:
   19AD C5                 8142 	push	bc
   19AE E8 FC              8143 	lda	sp,-4(sp)
                           8144 ;	src\\functions.c 375
                           8145 ; genCall
   19B0 CD 00 00           8146 	call	_waitpadup
                           8147 ;	src\\functions.c 376
                           8148 ; genAssign
                           8149 ; AOP_STK for 
                           8150 ; AOP_STK for _show_message_sloc0_1_0
   19B3 F8 08              8151 	lda	hl,8(sp)
   19B5 2A                 8152 	ld	a,(hl+)
   19B6 5E                 8153 	ld	e,(hl)
   19B7 F8 02              8154 	lda	hl,2(sp)
   19B9 22                 8155 	ld	(hl+),a
   19BA 73                 8156 	ld	(hl),e
                           8157 ; genPlus
                           8158 ; AOP_STK for _show_message_sloc0_1_0
                           8159 ; genPlusIncr
                           8160 ;	genPlusIncr failed
   19BB 2B                 8161 	dec	hl
   19BC 5E                 8162 	ld	e,(hl)
   19BD 23                 8163 	inc	hl
   19BE 56                 8164 	ld	d,(hl)
   19BF 21 09 00           8165 	ld	hl,#0x0009
   19C2 19                 8166 	add	hl,de
   19C3 5D                 8167 	ld	e,l
   19C4 54                 8168 	ld	d,h
                           8169 ; genPointerGet
                           8170 ; Removed redundent load
                           8171 ; Removed redundent load
   19C5 1A                 8172 	ld	a,(de)
   19C6 4F                 8173 	ld	c,a
   19C7 13                 8174 	inc	de
   19C8 1A                 8175 	ld	a,(de)
   19C9 47                 8176 	ld	b,a
                           8177 ; genIpush
   19CA 3E 78              8178 	ld	a,#0x78
   19CC F5                 8179 	push	af
   19CD 33                 8180 	inc	sp
                           8181 ; genIpush
   19CE C5                 8182 	push	bc
                           8183 ; genCall
   19CF CD F9 18           8184 	call	_print_to_win
   19D2 E8 03              8185 	lda	sp,3(sp)
                           8186 ;	src\\functions.c 377
                           8187 ; genIpush
   19D4 3E 10              8188 	ld	a,#0x10
   19D6 F5                 8189 	push	af
   19D7 33                 8190 	inc	sp
                           8191 ; genCall
   19D8 CD 00 00           8192 	call	_waitpad
   19DB E8 01              8193 	lda	sp,1(sp)
                           8194 ;	src\\functions.c 378
                           8195 ; genCall
   19DD CD 00 00           8196 	call	_waitpadup
                           8197 ;	src\\functions.c 379
                           8198 ; genCall
   19E0 CD 92 19           8199 	call	_hide_win_text
                           8200 ;	src\\functions.c 381
                           8201 ; genPlus
                           8202 ; AOP_STK for _show_message_sloc0_1_0
                           8203 ; genPlusIncr
                           8204 ;	genPlusIncr failed
   19E3 F8 02              8205 	lda	hl,2(sp)
   19E5 5E                 8206 	ld	e,(hl)
   19E6 23                 8207 	inc	hl
   19E7 56                 8208 	ld	d,(hl)
   19E8 21 0D 00           8209 	ld	hl,#0x000D
   19EB 19                 8210 	add	hl,de
   19EC 5D                 8211 	ld	e,l
   19ED 54                 8212 	ld	d,h
                           8213 ; genPointerGet
   19EE 1A                 8214 	ld	a,(de)
   19EF 4F                 8215 	ld	c,a
                           8216 ; genCmpGt
   19F0 AF                 8217 	xor	a,a
   19F1 3E 01              8218 	ld	a,#0x01
   19F3 99                 8219 	sbc	a,c ; 2
   19F4 D2 20 1A           8220 	jp	nc,00102$
                           8221 ;	src\\functions.c 382
                           8222 ; genPlus
                           8223 ; AOP_STK for _show_message_sloc0_1_0
                           8224 ; genPlusIncr
                           8225 ;	genPlusIncr failed
   19F7 F8 02              8226 	lda	hl,2(sp)
   19F9 5E                 8227 	ld	e,(hl)
   19FA 23                 8228 	inc	hl
   19FB 56                 8229 	ld	d,(hl)
   19FC 21 0B 00           8230 	ld	hl,#0x000B
   19FF 19                 8231 	add	hl,de
   1A00 5D                 8232 	ld	e,l
   1A01 54                 8233 	ld	d,h
                           8234 ; genPointerGet
                           8235 ; Removed redundent load
                           8236 ; Removed redundent load
   1A02 1A                 8237 	ld	a,(de)
   1A03 4F                 8238 	ld	c,a
   1A04 13                 8239 	inc	de
   1A05 1A                 8240 	ld	a,(de)
   1A06 47                 8241 	ld	b,a
                           8242 ; genIpush
   1A07 3E 78              8243 	ld	a,#0x78
   1A09 F5                 8244 	push	af
   1A0A 33                 8245 	inc	sp
                           8246 ; genIpush
   1A0B C5                 8247 	push	bc
                           8248 ; genCall
   1A0C CD F9 18           8249 	call	_print_to_win
   1A0F E8 03              8250 	lda	sp,3(sp)
                           8251 ;	src\\functions.c 383
                           8252 ; genIpush
   1A11 3E 10              8253 	ld	a,#0x10
   1A13 F5                 8254 	push	af
   1A14 33                 8255 	inc	sp
                           8256 ; genCall
   1A15 CD 00 00           8257 	call	_waitpad
   1A18 E8 01              8258 	lda	sp,1(sp)
                           8259 ;	src\\functions.c 384
                           8260 ; genCall
   1A1A CD 00 00           8261 	call	_waitpadup
                           8262 ;	src\\functions.c 385
                           8263 ; genCall
   1A1D CD 92 19           8264 	call	_hide_win_text
                           8265 ; genLabel
   1A20                    8266 00102$:
                           8267 ;	src\\functions.c 388
                           8268 ; genPointerGet
                           8269 ; AOP_STK for _show_message_sloc0_1_0
                           8270 ; AOP_STK for _show_message_sloc1_1_0
   1A20 F8 02              8271 	lda	hl,2(sp)
   1A22 5E                 8272 	ld	e,(hl)
   1A23 23                 8273 	inc	hl
   1A24 56                 8274 	ld	d,(hl)
   1A25 1A                 8275 	ld	a,(de)
   1A26 F8 00              8276 	lda	hl,0(sp)
   1A28 77                 8277 	ld	(hl),a
   1A29 13                 8278 	inc	de
   1A2A 1A                 8279 	ld	a,(de)
   1A2B 23                 8280 	inc	hl
   1A2C 77                 8281 	ld	(hl),a
                           8282 ; genIpush
   1A2D 21 BF 1A           8283 	ld	hl,#__str_18 + 0
   1A30 E5                 8284 	push	hl
                           8285 ; genIpush
                           8286 ; AOP_STK for _show_message_sloc1_1_0
   1A31 F8 02              8287 	lda	hl,2(sp)
   1A33 2A                 8288 	ld	a,(hl+)
   1A34 66                 8289 	ld	h,(hl)
   1A35 6F                 8290 	ld	l,a
   1A36 E5                 8291 	push	hl
                           8292 ; genCall
   1A37 CD 10 0C           8293 	call	_strcmp
   1A3A 42                 8294 	ld	b,d
   1A3B 4B                 8295 	ld	c,e
   1A3C E8 04              8296 	lda	sp,4(sp)
                           8297 ; genCmpEq
   1A3E 79                 8298 	ld	a,c
   1A3F B0                 8299 	or	a,b
   1A40 C2 45 1A           8300 	jp	nz,00117$
   1A43 18 03              8301 	jr	00118$
   1A45                    8302 00117$:
   1A45 C3 4D 1A           8303 	jp	00104$
   1A48                    8304 00118$:
                           8305 ;	src\\functions.c 389
                           8306 ; genAssign
                           8307 ; AOP_HL for _epeestat
   1A48 21 1A 00           8308 	ld	hl,#_epeestat + 0
   1A4B 36 01              8309 	ld	(hl),#0x01
                           8310 ; genLabel
   1A4D                    8311 00104$:
                           8312 ;	src\\functions.c 391
                           8313 ; genIpush
   1A4D 21 C4 1A           8314 	ld	hl,#__str_19 + 0
   1A50 E5                 8315 	push	hl
                           8316 ; genIpush
                           8317 ; AOP_STK for _show_message_sloc1_1_0
   1A51 F8 02              8318 	lda	hl,2(sp)
   1A53 2A                 8319 	ld	a,(hl+)
   1A54 66                 8320 	ld	h,(hl)
   1A55 6F                 8321 	ld	l,a
   1A56 E5                 8322 	push	hl
                           8323 ; genCall
   1A57 CD 10 0C           8324 	call	_strcmp
   1A5A 42                 8325 	ld	b,d
   1A5B 4B                 8326 	ld	c,e
   1A5C E8 04              8327 	lda	sp,4(sp)
                           8328 ; genCmpEq
   1A5E 79                 8329 	ld	a,c
   1A5F B0                 8330 	or	a,b
   1A60 C2 65 1A           8331 	jp	nz,00119$
   1A63 18 03              8332 	jr	00120$
   1A65                    8333 00119$:
   1A65 C3 92 1A           8334 	jp	00106$
   1A68                    8335 00120$:
                           8336 ; genCmpEq
                           8337 ; AOP_HL for _epeestat
   1A68 21 1A 00           8338 	ld	hl,#_epeestat + 0
   1A6B 7E                 8339 	ld	a,(hl) ; 2
   1A6C FE 01              8340 	cp	a,#0x01
   1A6E C2 73 1A           8341 	jp	nz,00121$
   1A71 18 03              8342 	jr	00122$
   1A73                    8343 00121$:
   1A73 C3 92 1A           8344 	jp	00106$
   1A76                    8345 00122$:
                           8346 ;	src\\functions.c 392
                           8347 ; genIpush
   1A76 3E 78              8348 	ld	a,#0x78
   1A78 F5                 8349 	push	af
   1A79 33                 8350 	inc	sp
                           8351 ; genIpush
   1A7A 21 C9 1A           8352 	ld	hl,#__str_20 + 0
   1A7D E5                 8353 	push	hl
                           8354 ; genCall
   1A7E CD F9 18           8355 	call	_print_to_win
   1A81 E8 03              8356 	lda	sp,3(sp)
                           8357 ;	src\\functions.c 393
                           8358 ; genIpush
   1A83 3E 10              8359 	ld	a,#0x10
   1A85 F5                 8360 	push	af
   1A86 33                 8361 	inc	sp
                           8362 ; genCall
   1A87 CD 00 00           8363 	call	_waitpad
   1A8A E8 01              8364 	lda	sp,1(sp)
                           8365 ;	src\\functions.c 394
                           8366 ; genCall
   1A8C CD 00 00           8367 	call	_waitpadup
                           8368 ;	src\\functions.c 395
                           8369 ; genCall
   1A8F CD 92 19           8370 	call	_hide_win_text
                           8371 ; genLabel
   1A92                    8372 00106$:
                           8373 ;	src\\functions.c 398
                           8374 ; genIpush
   1A92 21 EC 1A           8375 	ld	hl,#__str_21 + 0
   1A95 E5                 8376 	push	hl
                           8377 ; genIpush
                           8378 ; AOP_STK for _show_message_sloc1_1_0
   1A96 F8 02              8379 	lda	hl,2(sp)
   1A98 2A                 8380 	ld	a,(hl+)
   1A99 66                 8381 	ld	h,(hl)
   1A9A 6F                 8382 	ld	l,a
   1A9B E5                 8383 	push	hl
                           8384 ; genCall
   1A9C CD 10 0C           8385 	call	_strcmp
   1A9F 42                 8386 	ld	b,d
   1AA0 4B                 8387 	ld	c,e
   1AA1 E8 04              8388 	lda	sp,4(sp)
                           8389 ; genCmpEq
   1AA3 79                 8390 	ld	a,c
   1AA4 B0                 8391 	or	a,b
   1AA5 C2 AA 1A           8392 	jp	nz,00123$
   1AA8 18 03              8393 	jr	00124$
   1AAA                    8394 00123$:
   1AAA C3 BB 1A           8395 	jp	00110$
   1AAD                    8396 00124$:
                           8397 ;	src\\functions.c 399
                           8398 ; genPlus
                           8399 ; AOP_STK for _show_message_sloc0_1_0
                           8400 ; genPlusIncr
                           8401 ;	genPlusIncr failed
   1AAD F8 02              8402 	lda	hl,2(sp)
   1AAF 5E                 8403 	ld	e,(hl)
   1AB0 23                 8404 	inc	hl
   1AB1 56                 8405 	ld	d,(hl)
   1AB2 21 0E 00           8406 	ld	hl,#0x000E
   1AB5 19                 8407 	add	hl,de
   1AB6 5D                 8408 	ld	e,l
   1AB7 54                 8409 	ld	d,h
                           8410 ; genAssign (pointer)
   1AB8 3E 00              8411 	ld	a,#0x00
   1ABA 12                 8412 	ld	(de),a
                           8413 ; genLabel
   1ABB                    8414 00110$:
                           8415 ; genEndFunction
   1ABB E8 04              8416 	lda	sp,4(sp)
   1ABD C1                 8417 	pop	bc
   1ABE C9                 8418 	ret
   1ABF                    8419 ___show_message_end:
   1ABF                    8420 __str_18:
   1ABF 76 69 6F 63        8421 	.ascii "vioc"
   1AC3 00                 8422 	.db 0x00
   1AC4                    8423 __str_19:
   1AC4 6D 65 75 66        8424 	.ascii "meuf"
   1AC8 00                 8425 	.db 0x00
   1AC9                    8426 __str_20:
   1AC9 4F 48 20 55 4E 45  8427 	.ascii "OH UNE EPEE         IMPRESSIONNANT"
        20 45 50 45 45 20
        20 20 20 20 20 20
        20 20 49 4D 50 52
        45 53 53 49 4F 4E
        4E 41 4E 54
   1AEB 00                 8428 	.db 0x00
   1AEC                    8429 __str_21:
   1AEC 65 6E 65 6D 69     8430 	.ascii "enemi"
   1AF1 00                 8431 	.db 0x00
                           8432 ;	src\\functions.c 404
                           8433 ; genLabel
                           8434 ; genFunction
                           8435 ;	---------------------------------
                           8436 ; Function detect_movement
                           8437 ; ---------------------------------
   1AF2                    8438 ___detect_movement_start:
   1AF2                    8439 _detect_movement:
   1AF2 C5                 8440 	push	bc
   1AF3 E8 FE              8441 	lda	sp,-2(sp)
                           8442 ;	src\\functions.c 407
                           8443 ; genAssign
                           8444 ; AOP_HL for _speed
   1AF5 21 10 00           8445 	ld	hl,#_speed + 0
   1AF8 36 01              8446 	ld	(hl),#0x01
   1AFA 23                 8447 	inc	hl
   1AFB 36 00              8448 	ld	(hl),#0x00
                           8449 ;	src\\functions.c 408
                           8450 ; genCall
   1AFD CD 00 00           8451 	call	_joypad
   1B00 4B                 8452 	ld	c,e
                           8453 ; genAnd
   1B01 79                 8454 	ld	a,c
   1B02 CB 6F              8455 	bit	5,a
   1B04 CA 0F 1B           8456 	jp	z,00102$
                           8457 ;	src\\functions.c 409
                           8458 ; genAssign
                           8459 ; AOP_HL for _speed
   1B07 21 10 00           8460 	ld	hl,#_speed + 0
   1B0A 36 04              8461 	ld	(hl),#0x04
   1B0C 23                 8462 	inc	hl
   1B0D 36 00              8463 	ld	(hl),#0x00
                           8464 ; genLabel
   1B0F                    8465 00102$:
                           8466 ;	src\\functions.c 412
                           8467 ; genCall
   1B0F CD 00 00           8468 	call	_joypad
   1B12 4B                 8469 	ld	c,e
                           8470 ; genAnd
   1B13 79                 8471 	ld	a,c
   1B14 CB 4F              8472 	bit	1,a
   1B16 CA AA 1B           8473 	jp	z,00136$
                           8474 ;	src\\functions.c 413
                           8475 ; genIpush
   1B19 21 05 00           8476 	ld	hl,#0x0005
   1B1C E5                 8477 	push	hl
                           8478 ; genCall
   1B1D CD 00 00           8479 	call	_delay
   1B20 E8 02              8480 	lda	sp,2(sp)
                           8481 ;	src\\functions.c 415
                           8482 ; genIpush
   1B22 3E 02              8483 	ld	a,#0x02
   1B24 F5                 8484 	push	af
   1B25 33                 8485 	inc	sp
                           8486 ; genIpush
   1B26 3E 00              8487 	ld	a,#0x00
   1B28 F5                 8488 	push	af
   1B29 33                 8489 	inc	sp
                           8490 ; genCall
   1B2A CD 00 00           8491 	call	_set_sprite_tile
   1B2D E8 02              8492 	lda	sp,2(sp)
                           8493 ;	src\\functions.c 416
                           8494 ; genPlus
                           8495 ; genPlusIncr
   1B2F 11 0E 00           8496 	ld	de,#_player_location + 0 + 2
                           8497 ; genPointerGet
                           8498 ; Removed redundent load
                           8499 ; Removed redundent load
   1B32 1A                 8500 	ld	a,(de)
   1B33 4F                 8501 	ld	c,a
   1B34 13                 8502 	inc	de
   1B35 1A                 8503 	ld	a,(de)
   1B36 47                 8504 	ld	b,a
                           8505 ; genCast
                           8506 ; AOP_STK for _detect_movement_sloc0_1_0
   1B37 F8 00              8507 	lda	hl,0(sp)
   1B39 71                 8508 	ld	(hl),c
                           8509 ; genPointerGet
   1B3A 11 0C 00           8510 	ld	de,#_player_location + 0
   1B3D 1A                 8511 	ld	a,(de)
   1B3E 47                 8512 	ld	b,a
   1B3F 13                 8513 	inc	de
   1B40 1A                 8514 	ld	a,(de)
   1B41 4F                 8515 	ld	c,a
                           8516 ; genMinus
   1B42 78                 8517 	ld	a,b
   1B43 C6 F8              8518 	add	a,#0xF8
   1B45 47                 8519 	ld	b,a
   1B46 79                 8520 	ld	a,c
   1B47 CE FF              8521 	adc	a,#0xFF
   1B49 4F                 8522 	ld	c,a
                           8523 ; genCast
   1B4A 48                 8524 	ld	c,b
                           8525 ; genIpush
                           8526 ; AOP_STK for _detect_movement_sloc0_1_0
   1B4B 7E                 8527 	ld	a,(hl)
   1B4C F5                 8528 	push	af
   1B4D 33                 8529 	inc	sp
                           8530 ; genIpush
   1B4E 79                 8531 	ld	a,c
   1B4F F5                 8532 	push	af
   1B50 33                 8533 	inc	sp
                           8534 ; genCall
   1B51 CD 8A 0C           8535 	call	_can_player_move
   1B54 43                 8536 	ld	b,e
   1B55 E8 02              8537 	lda	sp,2(sp)
                           8538 ; genIfx
                           8539 ; Removed redundent or a,a
   1B57 AF                 8540 	xor	a,a
   1B58 B0                 8541 	or	a,b
   1B59 CA 92 1B           8542 	jp	z,00106$
                           8543 ; genCmpLt
                           8544 ; AOP_HL for _count_l
   1B5C 21 06 00           8545 	ld	hl,#_count_l + 0
   1B5F 5E                 8546 	ld	e,(hl)
   1B60 23                 8547 	inc	hl
   1B61 56                 8548 	ld	d,(hl)
   1B62 21 F1 FF           8549 	ld	hl,#0xFFF1
   1B65 19                 8550 	add	hl,de
   1B66 D2 92 1B           8551 	jp	nc,00106$
                           8552 ;	src\\functions.c 417
                           8553 ; genAssign
                           8554 ; AOP_HL for _count_l
   1B69 21 06 00           8555 	ld	hl,#_count_l + 0
   1B6C 36 00              8556 	ld	(hl),#0x00
   1B6E 23                 8557 	inc	hl
   1B6F 36 00              8558 	ld	(hl),#0x00
                           8559 ;	src\\functions.c 418
                           8560 ; genIpush
                           8561 ; AOP_STK for _detect_movement_sloc0_1_0
   1B71 F8 00              8562 	lda	hl,0(sp)
   1B73 7E                 8563 	ld	a,(hl)
   1B74 F5                 8564 	push	af
   1B75 33                 8565 	inc	sp
                           8566 ; genIpush
   1B76 79                 8567 	ld	a,c
   1B77 F5                 8568 	push	af
   1B78 33                 8569 	inc	sp
                           8570 ; genCall
   1B79 CD 37 15           8571 	call	_detect_edge
                           8572 ; AOP_STK for _detect_movement_edge_shift_1_1
   1B7C F8 03              8573 	lda	hl,3(sp)
   1B7E 73                 8574 	ld	(hl),e
   1B7F E8 02              8575 	lda	sp,2(sp)
                           8576 ;	src\\functions.c 419
                           8577 ; genIfx
                           8578 ; AOP_STK for _detect_movement_edge_shift_1_1
                           8579 ; Removed redundent or a,a
   1B81 AF                 8580 	xor	a,a
   1B82 B6                 8581 	or	a,(hl)
   1B83 C2 5D 1D           8582 	jp	nz,00138$
                           8583 ; genIpush
   1B86 3E 6C              8584 	ld	a,#0x6C
   1B88 F5                 8585 	push	af
   1B89 33                 8586 	inc	sp
                           8587 ; genCall
   1B8A CD 6C 12           8588 	call	_move_player
   1B8D E8 01              8589 	lda	sp,1(sp)
                           8590 ; genGoto
   1B8F C3 5D 1D           8591 	jp	00138$
                           8592 ; genLabel
   1B92                    8593 00106$:
                           8594 ;	src\\functions.c 421
                           8595 ; genPlus
                           8596 ; AOP_HL for _count_l
                           8597 ; AOP_HL for _speed
                           8598 ;	genPlusIncr failed
   1B92 21 06 00           8599 	ld	hl,#_count_l + 0
   1B95 7E                 8600 	ld	a,(hl)
   1B96 21 10 00           8601 	ld	hl,#_speed + 0
   1B99 86                 8602 	add	a,(hl)
   1B9A 21 06 00           8603 	ld	hl,#_count_l + 0
   1B9D 22                 8604 	ld	(hl+),a
   1B9E 7E                 8605 	ld	a,(hl)
   1B9F 21 11 00           8606 	ld	hl,#_speed + 0 + 1
   1BA2 8E                 8607 	adc	a,(hl)
   1BA3 21 07 00           8608 	ld	hl,#_count_l + 0 + 1
   1BA6 77                 8609 	ld	(hl),a
                           8610 ; genGoto
   1BA7 C3 5D 1D           8611 	jp	00138$
                           8612 ; genLabel
   1BAA                    8613 00136$:
                           8614 ;	src\\functions.c 423
                           8615 ; genCall
   1BAA CD 00 00           8616 	call	_joypad
   1BAD 43                 8617 	ld	b,e
                           8618 ; genAnd
   1BAE 78                 8619 	ld	a,b
   1BAF CB 47              8620 	bit	0,a
   1BB1 CA 3C 1C           8621 	jp	z,00133$
                           8622 ;	src\\functions.c 424
                           8623 ; genIpush
   1BB4 3E 01              8624 	ld	a,#0x01
   1BB6 F5                 8625 	push	af
   1BB7 33                 8626 	inc	sp
                           8627 ; genIpush
   1BB8 3E 00              8628 	ld	a,#0x00
   1BBA F5                 8629 	push	af
   1BBB 33                 8630 	inc	sp
                           8631 ; genCall
   1BBC CD 00 00           8632 	call	_set_sprite_tile
   1BBF E8 02              8633 	lda	sp,2(sp)
                           8634 ;	src\\functions.c 425
                           8635 ; genPlus
                           8636 ; genPlusIncr
   1BC1 11 0E 00           8637 	ld	de,#_player_location + 0 + 2
                           8638 ; genPointerGet
                           8639 ; Removed redundent load
                           8640 ; Removed redundent load
   1BC4 1A                 8641 	ld	a,(de)
   1BC5 47                 8642 	ld	b,a
   1BC6 13                 8643 	inc	de
   1BC7 1A                 8644 	ld	a,(de)
   1BC8 4F                 8645 	ld	c,a
                           8646 ; genCast
                           8647 ; AOP_STK for _detect_movement_sloc0_1_0
   1BC9 F8 00              8648 	lda	hl,0(sp)
   1BCB 70                 8649 	ld	(hl),b
                           8650 ; genPointerGet
   1BCC 11 0C 00           8651 	ld	de,#_player_location + 0
   1BCF 1A                 8652 	ld	a,(de)
   1BD0 47                 8653 	ld	b,a
   1BD1 13                 8654 	inc	de
   1BD2 1A                 8655 	ld	a,(de)
   1BD3 4F                 8656 	ld	c,a
                           8657 ; genPlus
                           8658 ; genPlusIncr
                           8659 ;	genPlusIncr failed
   1BD4 78                 8660 	ld	a,b
   1BD5 C6 08              8661 	add	a,#0x08
   1BD7 47                 8662 	ld	b,a
   1BD8 79                 8663 	ld	a,c
   1BD9 CE 00              8664 	adc	a,#0x00
   1BDB 4F                 8665 	ld	c,a
                           8666 ; genCast
   1BDC 48                 8667 	ld	c,b
                           8668 ; genIpush
                           8669 ; AOP_STK for _detect_movement_sloc0_1_0
   1BDD 7E                 8670 	ld	a,(hl)
   1BDE F5                 8671 	push	af
   1BDF 33                 8672 	inc	sp
                           8673 ; genIpush
   1BE0 79                 8674 	ld	a,c
   1BE1 F5                 8675 	push	af
   1BE2 33                 8676 	inc	sp
                           8677 ; genCall
   1BE3 CD 8A 0C           8678 	call	_can_player_move
   1BE6 43                 8679 	ld	b,e
   1BE7 E8 02              8680 	lda	sp,2(sp)
                           8681 ; genIfx
                           8682 ; Removed redundent or a,a
   1BE9 AF                 8683 	xor	a,a
   1BEA B0                 8684 	or	a,b
   1BEB CA 24 1C           8685 	jp	z,00112$
                           8686 ; genCmpLt
                           8687 ; AOP_HL for _count_r
   1BEE 21 04 00           8688 	ld	hl,#_count_r + 0
   1BF1 5E                 8689 	ld	e,(hl)
   1BF2 23                 8690 	inc	hl
   1BF3 56                 8691 	ld	d,(hl)
   1BF4 21 F1 FF           8692 	ld	hl,#0xFFF1
   1BF7 19                 8693 	add	hl,de
   1BF8 D2 24 1C           8694 	jp	nc,00112$
                           8695 ;	src\\functions.c 426
                           8696 ; genAssign
                           8697 ; AOP_HL for _count_r
   1BFB 21 04 00           8698 	ld	hl,#_count_r + 0
   1BFE 36 00              8699 	ld	(hl),#0x00
   1C00 23                 8700 	inc	hl
   1C01 36 00              8701 	ld	(hl),#0x00
                           8702 ;	src\\functions.c 427
                           8703 ; genIpush
                           8704 ; AOP_STK for _detect_movement_sloc0_1_0
   1C03 F8 00              8705 	lda	hl,0(sp)
   1C05 7E                 8706 	ld	a,(hl)
   1C06 F5                 8707 	push	af
   1C07 33                 8708 	inc	sp
                           8709 ; genIpush
   1C08 79                 8710 	ld	a,c
   1C09 F5                 8711 	push	af
   1C0A 33                 8712 	inc	sp
                           8713 ; genCall
   1C0B CD 37 15           8714 	call	_detect_edge
                           8715 ; AOP_STK for _detect_movement_edge_shift_1_1
   1C0E F8 03              8716 	lda	hl,3(sp)
   1C10 73                 8717 	ld	(hl),e
   1C11 E8 02              8718 	lda	sp,2(sp)
                           8719 ;	src\\functions.c 428
                           8720 ; genIfx
                           8721 ; AOP_STK for _detect_movement_edge_shift_1_1
                           8722 ; Removed redundent or a,a
   1C13 AF                 8723 	xor	a,a
   1C14 B6                 8724 	or	a,(hl)
   1C15 C2 5D 1D           8725 	jp	nz,00138$
                           8726 ; genIpush
   1C18 3E 72              8727 	ld	a,#0x72
   1C1A F5                 8728 	push	af
   1C1B 33                 8729 	inc	sp
                           8730 ; genCall
   1C1C CD 6C 12           8731 	call	_move_player
   1C1F E8 01              8732 	lda	sp,1(sp)
                           8733 ; genGoto
   1C21 C3 5D 1D           8734 	jp	00138$
                           8735 ; genLabel
   1C24                    8736 00112$:
                           8737 ;	src\\functions.c 431
                           8738 ; genPlus
                           8739 ; AOP_HL for _count_r
                           8740 ; AOP_HL for _speed
                           8741 ;	genPlusIncr failed
   1C24 21 04 00           8742 	ld	hl,#_count_r + 0
   1C27 7E                 8743 	ld	a,(hl)
   1C28 21 10 00           8744 	ld	hl,#_speed + 0
   1C2B 86                 8745 	add	a,(hl)
   1C2C 21 04 00           8746 	ld	hl,#_count_r + 0
   1C2F 22                 8747 	ld	(hl+),a
   1C30 7E                 8748 	ld	a,(hl)
   1C31 21 11 00           8749 	ld	hl,#_speed + 0 + 1
   1C34 8E                 8750 	adc	a,(hl)
   1C35 21 05 00           8751 	ld	hl,#_count_r + 0 + 1
   1C38 77                 8752 	ld	(hl),a
                           8753 ; genGoto
   1C39 C3 5D 1D           8754 	jp	00138$
                           8755 ; genLabel
   1C3C                    8756 00133$:
                           8757 ;	src\\functions.c 433
                           8758 ; genCall
   1C3C CD 00 00           8759 	call	_joypad
   1C3F 4B                 8760 	ld	c,e
                           8761 ; genAnd
   1C40 79                 8762 	ld	a,c
   1C41 CB 57              8763 	bit	2,a
   1C43 CA CE 1C           8764 	jp	z,00130$
                           8765 ;	src\\functions.c 434
                           8766 ; genIpush
   1C46 3E 03              8767 	ld	a,#0x03
   1C48 F5                 8768 	push	af
   1C49 33                 8769 	inc	sp
                           8770 ; genIpush
   1C4A 3E 00              8771 	ld	a,#0x00
   1C4C F5                 8772 	push	af
   1C4D 33                 8773 	inc	sp
                           8774 ; genCall
   1C4E CD 00 00           8775 	call	_set_sprite_tile
   1C51 E8 02              8776 	lda	sp,2(sp)
                           8777 ;	src\\functions.c 435
                           8778 ; genPlus
                           8779 ; genPlusIncr
   1C53 11 0E 00           8780 	ld	de,#_player_location + 0 + 2
                           8781 ; genPointerGet
                           8782 ; Removed redundent load
                           8783 ; Removed redundent load
   1C56 1A                 8784 	ld	a,(de)
   1C57 4F                 8785 	ld	c,a
   1C58 13                 8786 	inc	de
   1C59 1A                 8787 	ld	a,(de)
   1C5A 47                 8788 	ld	b,a
                           8789 ; genMinus
   1C5B 79                 8790 	ld	a,c
   1C5C C6 F8              8791 	add	a,#0xF8
   1C5E 4F                 8792 	ld	c,a
   1C5F 78                 8793 	ld	a,b
   1C60 CE FF              8794 	adc	a,#0xFF
   1C62 47                 8795 	ld	b,a
                           8796 ; genCast
                           8797 ; AOP_STK for _detect_movement_sloc0_1_0
   1C63 F8 00              8798 	lda	hl,0(sp)
   1C65 71                 8799 	ld	(hl),c
                           8800 ; genPointerGet
   1C66 11 0C 00           8801 	ld	de,#_player_location + 0
   1C69 1A                 8802 	ld	a,(de)
   1C6A 47                 8803 	ld	b,a
   1C6B 13                 8804 	inc	de
   1C6C 1A                 8805 	ld	a,(de)
   1C6D 4F                 8806 	ld	c,a
                           8807 ; genCast
   1C6E 48                 8808 	ld	c,b
                           8809 ; genIpush
                           8810 ; AOP_STK for _detect_movement_sloc0_1_0
   1C6F 7E                 8811 	ld	a,(hl)
   1C70 F5                 8812 	push	af
   1C71 33                 8813 	inc	sp
                           8814 ; genIpush
   1C72 79                 8815 	ld	a,c
   1C73 F5                 8816 	push	af
   1C74 33                 8817 	inc	sp
                           8818 ; genCall
   1C75 CD 8A 0C           8819 	call	_can_player_move
   1C78 43                 8820 	ld	b,e
   1C79 E8 02              8821 	lda	sp,2(sp)
                           8822 ; genIfx
                           8823 ; Removed redundent or a,a
   1C7B AF                 8824 	xor	a,a
   1C7C B0                 8825 	or	a,b
   1C7D CA B6 1C           8826 	jp	z,00118$
                           8827 ; genCmpLt
                           8828 ; AOP_HL for _count_u
   1C80 21 0A 00           8829 	ld	hl,#_count_u + 0
   1C83 5E                 8830 	ld	e,(hl)
   1C84 23                 8831 	inc	hl
   1C85 56                 8832 	ld	d,(hl)
   1C86 21 F1 FF           8833 	ld	hl,#0xFFF1
   1C89 19                 8834 	add	hl,de
   1C8A D2 B6 1C           8835 	jp	nc,00118$
                           8836 ;	src\\functions.c 436
                           8837 ; genAssign
                           8838 ; AOP_HL for _count_u
   1C8D 21 0A 00           8839 	ld	hl,#_count_u + 0
   1C90 36 00              8840 	ld	(hl),#0x00
   1C92 23                 8841 	inc	hl
   1C93 36 00              8842 	ld	(hl),#0x00
                           8843 ;	src\\functions.c 437
                           8844 ; genIpush
                           8845 ; AOP_STK for _detect_movement_sloc0_1_0
   1C95 F8 00              8846 	lda	hl,0(sp)
   1C97 7E                 8847 	ld	a,(hl)
   1C98 F5                 8848 	push	af
   1C99 33                 8849 	inc	sp
                           8850 ; genIpush
   1C9A 79                 8851 	ld	a,c
   1C9B F5                 8852 	push	af
   1C9C 33                 8853 	inc	sp
                           8854 ; genCall
   1C9D CD 37 15           8855 	call	_detect_edge
                           8856 ; AOP_STK for _detect_movement_edge_shift_1_1
   1CA0 F8 03              8857 	lda	hl,3(sp)
   1CA2 73                 8858 	ld	(hl),e
   1CA3 E8 02              8859 	lda	sp,2(sp)
                           8860 ;	src\\functions.c 438
                           8861 ; genIfx
                           8862 ; AOP_STK for _detect_movement_edge_shift_1_1
                           8863 ; Removed redundent or a,a
   1CA5 AF                 8864 	xor	a,a
   1CA6 B6                 8865 	or	a,(hl)
   1CA7 C2 5D 1D           8866 	jp	nz,00138$
                           8867 ; genIpush
   1CAA 3E 75              8868 	ld	a,#0x75
   1CAC F5                 8869 	push	af
   1CAD 33                 8870 	inc	sp
                           8871 ; genCall
   1CAE CD 6C 12           8872 	call	_move_player
   1CB1 E8 01              8873 	lda	sp,1(sp)
                           8874 ; genGoto
   1CB3 C3 5D 1D           8875 	jp	00138$
                           8876 ; genLabel
   1CB6                    8877 00118$:
                           8878 ;	src\\functions.c 440
                           8879 ; genPlus
                           8880 ; AOP_HL for _count_u
                           8881 ; AOP_HL for _speed
                           8882 ;	genPlusIncr failed
   1CB6 21 0A 00           8883 	ld	hl,#_count_u + 0
   1CB9 7E                 8884 	ld	a,(hl)
   1CBA 21 10 00           8885 	ld	hl,#_speed + 0
   1CBD 86                 8886 	add	a,(hl)
   1CBE 21 0A 00           8887 	ld	hl,#_count_u + 0
   1CC1 22                 8888 	ld	(hl+),a
   1CC2 7E                 8889 	ld	a,(hl)
   1CC3 21 11 00           8890 	ld	hl,#_speed + 0 + 1
   1CC6 8E                 8891 	adc	a,(hl)
   1CC7 21 0B 00           8892 	ld	hl,#_count_u + 0 + 1
   1CCA 77                 8893 	ld	(hl),a
                           8894 ; genGoto
   1CCB C3 5D 1D           8895 	jp	00138$
                           8896 ; genLabel
   1CCE                    8897 00130$:
                           8898 ;	src\\functions.c 442
                           8899 ; genCall
   1CCE CD 00 00           8900 	call	_joypad
   1CD1 4B                 8901 	ld	c,e
                           8902 ; genAnd
   1CD2 79                 8903 	ld	a,c
   1CD3 CB 5F              8904 	bit	3,a
   1CD5 CA 5D 1D           8905 	jp	z,00138$
                           8906 ;	src\\functions.c 443
                           8907 ; genIpush
   1CD8 3E 00              8908 	ld	a,#0x00
   1CDA F5                 8909 	push	af
   1CDB 33                 8910 	inc	sp
                           8911 ; genIpush
   1CDC 3E 00              8912 	ld	a,#0x00
   1CDE F5                 8913 	push	af
   1CDF 33                 8914 	inc	sp
                           8915 ; genCall
   1CE0 CD 00 00           8916 	call	_set_sprite_tile
   1CE3 E8 02              8917 	lda	sp,2(sp)
                           8918 ;	src\\functions.c 445
                           8919 ; genPlus
                           8920 ; genPlusIncr
   1CE5 11 0E 00           8921 	ld	de,#_player_location + 0 + 2
                           8922 ; genPointerGet
                           8923 ; Removed redundent load
                           8924 ; Removed redundent load
   1CE8 1A                 8925 	ld	a,(de)
   1CE9 4F                 8926 	ld	c,a
   1CEA 13                 8927 	inc	de
   1CEB 1A                 8928 	ld	a,(de)
   1CEC 47                 8929 	ld	b,a
                           8930 ; genPlus
                           8931 ; genPlusIncr
                           8932 ;	genPlusIncr failed
   1CED 79                 8933 	ld	a,c
   1CEE C6 08              8934 	add	a,#0x08
   1CF0 4F                 8935 	ld	c,a
   1CF1 78                 8936 	ld	a,b
   1CF2 CE 00              8937 	adc	a,#0x00
   1CF4 47                 8938 	ld	b,a
                           8939 ; genCast
                           8940 ; AOP_STK for _detect_movement_sloc0_1_0
   1CF5 F8 00              8941 	lda	hl,0(sp)
   1CF7 71                 8942 	ld	(hl),c
                           8943 ; genPointerGet
   1CF8 11 0C 00           8944 	ld	de,#_player_location + 0
   1CFB 1A                 8945 	ld	a,(de)
   1CFC 47                 8946 	ld	b,a
   1CFD 13                 8947 	inc	de
   1CFE 1A                 8948 	ld	a,(de)
   1CFF 4F                 8949 	ld	c,a
                           8950 ; genCast
   1D00 48                 8951 	ld	c,b
                           8952 ; genIpush
                           8953 ; AOP_STK for _detect_movement_sloc0_1_0
   1D01 7E                 8954 	ld	a,(hl)
   1D02 F5                 8955 	push	af
   1D03 33                 8956 	inc	sp
                           8957 ; genIpush
   1D04 79                 8958 	ld	a,c
   1D05 F5                 8959 	push	af
   1D06 33                 8960 	inc	sp
                           8961 ; genCall
   1D07 CD 8A 0C           8962 	call	_can_player_move
   1D0A 43                 8963 	ld	b,e
   1D0B E8 02              8964 	lda	sp,2(sp)
                           8965 ; genIfx
                           8966 ; Removed redundent or a,a
   1D0D AF                 8967 	xor	a,a
   1D0E B0                 8968 	or	a,b
   1D0F CA 48 1D           8969 	jp	z,00124$
                           8970 ; genCmpLt
                           8971 ; AOP_HL for _count_d
   1D12 21 08 00           8972 	ld	hl,#_count_d + 0
   1D15 5E                 8973 	ld	e,(hl)
   1D16 23                 8974 	inc	hl
   1D17 56                 8975 	ld	d,(hl)
   1D18 21 F1 FF           8976 	ld	hl,#0xFFF1
   1D1B 19                 8977 	add	hl,de
   1D1C D2 48 1D           8978 	jp	nc,00124$
                           8979 ;	src\\functions.c 446
                           8980 ; genAssign
                           8981 ; AOP_HL for _count_d
   1D1F 21 08 00           8982 	ld	hl,#_count_d + 0
   1D22 36 00              8983 	ld	(hl),#0x00
   1D24 23                 8984 	inc	hl
   1D25 36 00              8985 	ld	(hl),#0x00
                           8986 ;	src\\functions.c 447
                           8987 ; genIpush
                           8988 ; AOP_STK for _detect_movement_sloc0_1_0
   1D27 F8 00              8989 	lda	hl,0(sp)
   1D29 7E                 8990 	ld	a,(hl)
   1D2A F5                 8991 	push	af
   1D2B 33                 8992 	inc	sp
                           8993 ; genIpush
   1D2C 79                 8994 	ld	a,c
   1D2D F5                 8995 	push	af
   1D2E 33                 8996 	inc	sp
                           8997 ; genCall
   1D2F CD 37 15           8998 	call	_detect_edge
                           8999 ; AOP_STK for _detect_movement_edge_shift_1_1
   1D32 F8 03              9000 	lda	hl,3(sp)
   1D34 73                 9001 	ld	(hl),e
   1D35 E8 02              9002 	lda	sp,2(sp)
                           9003 ;	src\\functions.c 448
                           9004 ; genIfx
                           9005 ; AOP_STK for _detect_movement_edge_shift_1_1
                           9006 ; Removed redundent or a,a
   1D37 AF                 9007 	xor	a,a
   1D38 B6                 9008 	or	a,(hl)
   1D39 C2 5D 1D           9009 	jp	nz,00138$
                           9010 ; genIpush
   1D3C 3E 64              9011 	ld	a,#0x64
   1D3E F5                 9012 	push	af
   1D3F 33                 9013 	inc	sp
                           9014 ; genCall
   1D40 CD 6C 12           9015 	call	_move_player
   1D43 E8 01              9016 	lda	sp,1(sp)
                           9017 ; genGoto
   1D45 C3 5D 1D           9018 	jp	00138$
                           9019 ; genLabel
   1D48                    9020 00124$:
                           9021 ;	src\\functions.c 450
                           9022 ; genPlus
                           9023 ; AOP_HL for _count_d
                           9024 ; AOP_HL for _speed
                           9025 ;	genPlusIncr failed
   1D48 21 08 00           9026 	ld	hl,#_count_d + 0
   1D4B 7E                 9027 	ld	a,(hl)
   1D4C 21 10 00           9028 	ld	hl,#_speed + 0
   1D4F 86                 9029 	add	a,(hl)
   1D50 21 08 00           9030 	ld	hl,#_count_d + 0
   1D53 22                 9031 	ld	(hl+),a
   1D54 7E                 9032 	ld	a,(hl)
   1D55 21 11 00           9033 	ld	hl,#_speed + 0 + 1
   1D58 8E                 9034 	adc	a,(hl)
   1D59 21 09 00           9035 	ld	hl,#_count_d + 0 + 1
   1D5C 77                 9036 	ld	(hl),a
                           9037 ; genLabel
   1D5D                    9038 00138$:
                           9039 ; genEndFunction
   1D5D E8 02              9040 	lda	sp,2(sp)
   1D5F C1                 9041 	pop	bc
   1D60 C9                 9042 	ret
   1D61                    9043 ___detect_movement_end:
                           9044 ;	src\\functions.c 454
                           9045 ; genLabel
                           9046 ; genFunction
                           9047 ;	---------------------------------
                           9048 ; Function detect_zone_change
                           9049 ; ---------------------------------
   1D61                    9050 ___detect_zone_change_start:
   1D61                    9051 _detect_zone_change:
   1D61 C5                 9052 	push	bc
   1D62 E8 FB              9053 	lda	sp,-5(sp)
                           9054 ;	src\\functions.c 455
                           9055 ; genPlus
                           9056 ; genPlusIncr
   1D64 11 52 00           9057 	ld	de,#_listezone + 0 + 2
                           9058 ; genPointerGet
   1D67 1A                 9059 	ld	a,(de)
   1D68 4F                 9060 	ld	c,a
                           9061 ; genCmpEq
                           9062 ; AOP_STK for _detect_zone_change_sloc0_1_0
   1D69 79                 9063 	ld	a,c ; 2
   1D6A FE 01              9064 	cp	a,#0x01
   1D6C C2 73 1D           9065 	jp	nz,00135$
   1D6F 3E 01              9066 	ld	a,#0x01
   1D71 18 01              9067 	jr	00136$
   1D73                    9068 00135$:
   1D73 AF                 9069 	xor	a,a
   1D74                    9070 00136$:
   1D74 F8 04              9071 	lda	hl,4(sp)
   1D76 77                 9072 	ld	(hl),a
                           9073 ; genIfx
                           9074 ; AOP_STK for _detect_zone_change_sloc0_1_0
                           9075 ; Removed redundent or a,a
   1D77 AF                 9076 	xor	a,a
   1D78 B6                 9077 	or	a,(hl)
   1D79 CA B2 1D           9078 	jp	z,00102$
                           9079 ; genCall
   1D7C CD 4C 10           9080 	call	_get_player_tile
   1D7F 4A                 9081 	ld	c,d
   1D80 43                 9082 	ld	b,e
                           9083 ; genCmpEq
   1D81 78                 9084 	ld	a,b ; 2
   1D82 FE 75              9085 	cp	a,#0x75
   1D84 C2 8E 1D           9086 	jp	nz,00137$
   1D87 79                 9087 	ld	a,c ; 2
                           9088 ; Rule 3
   1D88 B7                 9089 	or	a,a
   1D89 C2 8E 1D           9090 	jp	nz,00137$
   1D8C 18 03              9091 	jr	00138$
   1D8E                    9092 00137$:
   1D8E C3 B2 1D           9093 	jp	00102$
   1D91                    9094 00138$:
                           9095 ;	src\\functions.c 456
                           9096 ; genPlus
                           9097 ; genPlusIncr
   1D91 01 57 00           9098 	ld	bc,#_listezone + 0 + 7
                           9099 ; genIpush
   1D94 C5                 9100 	push	bc
                           9101 ; genCall
   1D95 CD F9 11           9102 	call	_set_zone
   1D98 E8 02              9103 	lda	sp,2(sp)
                           9104 ;	src\\functions.c 457
                           9105 ; genIpush
   1D9A 21 F3 00           9106 	ld	hl,#0x00F3
   1D9D E5                 9107 	push	hl
                           9108 ; genCall
   1D9E CD A9 10           9109 	call	_set_player_tile
   1DA1 E8 02              9110 	lda	sp,2(sp)
                           9111 ;	src\\functions.c 458
                           9112 ; genIpush
   1DA3 21 20 00           9113 	ld	hl,#_listepnj + 0
   1DA6 E5                 9114 	push	hl
                           9115 ; genCall
   1DA7 CD 33 11           9116 	call	_set_pnj
   1DAA E8 02              9117 	lda	sp,2(sp)
                           9118 ;	src\\functions.c 459
                           9119 ; genOr
                           9120 ; AOP_SFR for _LCDC_REG
                           9121 ; Type res[4] = l[4]&r[1]
                           9122 ; Size res[1] = l[1]&r[1]
   1DAC F0 00              9123 	ldh	a,(_LCDC_REG+0) ; x
   1DAE F6 80              9124 	or	a,#0x80
   1DB0 E0 00              9125 	ldh	(_LCDC_REG+0),a
                           9126 ; genLabel
   1DB2                    9127 00102$:
                           9128 ;	src\\functions.c 462
                           9129 ; genIfx
                           9130 ; AOP_STK for _detect_zone_change_sloc0_1_0
   1DB2 AF                 9131 	xor	a,a
   1DB3 F8 04              9132 	lda	hl,4(sp)
   1DB5 B6                 9133 	or	a,(hl)
   1DB6 B7                 9134 	or	a,a
   1DB7 CA F1 1D           9135 	jp	z,00105$
                           9136 ; genCall
   1DBA CD 4C 10           9137 	call	_get_player_tile
   1DBD 42                 9138 	ld	b,d
   1DBE 4B                 9139 	ld	c,e
                           9140 ; genCmpEq
   1DBF 79                 9141 	ld	a,c ; 2
   1DC0 FE 2F              9142 	cp	a,#0x2F
   1DC2 C2 CD 1D           9143 	jp	nz,00139$
   1DC5 78                 9144 	ld	a,b ; 2
   1DC6 FE 01              9145 	cp	a,#0x01
   1DC8 C2 CD 1D           9146 	jp	nz,00139$
   1DCB 18 03              9147 	jr	00140$
   1DCD                    9148 00139$:
   1DCD C3 F1 1D           9149 	jp	00105$
   1DD0                    9150 00140$:
                           9151 ;	src\\functions.c 463
                           9152 ; genPlus
                           9153 ; genPlusIncr
   1DD0 01 5E 00           9154 	ld	bc,#_listezone + 0 + 14
                           9155 ; genIpush
   1DD3 C5                 9156 	push	bc
                           9157 ; genCall
   1DD4 CD F9 11           9158 	call	_set_zone
   1DD7 E8 02              9159 	lda	sp,2(sp)
                           9160 ;	src\\functions.c 464
                           9161 ; genIpush
   1DD9 21 E4 00           9162 	ld	hl,#0x00E4
   1DDC E5                 9163 	push	hl
                           9164 ; genCall
   1DDD CD A9 10           9165 	call	_set_player_tile
   1DE0 E8 02              9166 	lda	sp,2(sp)
                           9167 ;	src\\functions.c 465
                           9168 ; genPlus
                           9169 ; genPlusIncr
   1DE2 01 30 00           9170 	ld	bc,#_listepnj + 0 + 16
                           9171 ; genIpush
   1DE5 C5                 9172 	push	bc
                           9173 ; genCall
   1DE6 CD 33 11           9174 	call	_set_pnj
   1DE9 E8 02              9175 	lda	sp,2(sp)
                           9176 ;	src\\functions.c 466
                           9177 ; genOr
                           9178 ; AOP_SFR for _LCDC_REG
                           9179 ; Type res[4] = l[4]&r[1]
                           9180 ; Size res[1] = l[1]&r[1]
   1DEB F0 00              9181 	ldh	a,(_LCDC_REG+0) ; x
   1DED F6 80              9182 	or	a,#0x80
   1DEF E0 00              9183 	ldh	(_LCDC_REG+0),a
                           9184 ; genLabel
   1DF1                    9185 00105$:
                           9186 ;	src\\functions.c 469
                           9187 ; genPlus
                           9188 ; genPlusIncr
   1DF1 11 59 00           9189 	ld	de,#_listezone + 0 + 9
                           9190 ; genPointerGet
                           9191 ; AOP_STK for _detect_zone_change_sloc0_1_0
   1DF4 1A                 9192 	ld	a,(de)
   1DF5 F8 04              9193 	lda	hl,4(sp)
   1DF7 77                 9194 	ld	(hl),a
                           9195 ; genCmpEq
                           9196 ; AOP_STK for _detect_zone_change_sloc0_1_0
   1DF8 7E                 9197 	ld	a,(hl) ; 2
   1DF9 FE 01              9198 	cp	a,#0x01
   1DFB C2 00 1E           9199 	jp	nz,00141$
   1DFE 18 03              9200 	jr	00142$
   1E00                    9201 00141$:
   1E00 C3 39 1E           9202 	jp	00108$
   1E03                    9203 00142$:
                           9204 ; genCall
   1E03 CD 4C 10           9205 	call	_get_player_tile
   1E06 4A                 9206 	ld	c,d
   1E07 43                 9207 	ld	b,e
                           9208 ; genCmpEq
   1E08 78                 9209 	ld	a,b ; 2
   1E09 FE F2              9210 	cp	a,#0xF2
   1E0B C2 15 1E           9211 	jp	nz,00143$
   1E0E 79                 9212 	ld	a,c ; 2
                           9213 ; Rule 3
   1E0F B7                 9214 	or	a,a
   1E10 C2 15 1E           9215 	jp	nz,00143$
   1E13 18 03              9216 	jr	00144$
   1E15                    9217 00143$:
   1E15 C3 39 1E           9218 	jp	00108$
   1E18                    9219 00144$:
                           9220 ;	src\\functions.c 470
                           9221 ; genIpush
   1E18 21 50 00           9222 	ld	hl,#_listezone + 0
   1E1B E5                 9223 	push	hl
                           9224 ; genCall
   1E1C CD F9 11           9225 	call	_set_zone
   1E1F E8 02              9226 	lda	sp,2(sp)
                           9227 ;	src\\functions.c 471
                           9228 ; genIpush
   1E21 21 20 00           9229 	ld	hl,#_listepnj + 0
   1E24 E5                 9230 	push	hl
                           9231 ; genCall
   1E25 CD C4 11           9232 	call	_hide_pnj
   1E28 E8 02              9233 	lda	sp,2(sp)
                           9234 ;	src\\functions.c 472
                           9235 ; genIpush
   1E2A 21 89 00           9236 	ld	hl,#0x0089
   1E2D E5                 9237 	push	hl
                           9238 ; genCall
   1E2E CD A9 10           9239 	call	_set_player_tile
   1E31 E8 02              9240 	lda	sp,2(sp)
                           9241 ;	src\\functions.c 473
                           9242 ; genOr
                           9243 ; AOP_SFR for _LCDC_REG
                           9244 ; Type res[4] = l[4]&r[1]
                           9245 ; Size res[1] = l[1]&r[1]
   1E33 F0 00              9246 	ldh	a,(_LCDC_REG+0) ; x
   1E35 F6 80              9247 	or	a,#0x80
   1E37 E0 00              9248 	ldh	(_LCDC_REG+0),a
                           9249 ; genLabel
   1E39                    9250 00108$:
                           9251 ;	src\\functions.c 476
                           9252 ; genPlus
                           9253 ; genPlusIncr
   1E39 11 60 00           9254 	ld	de,#_listezone + 0 + 16
                           9255 ; genPointerGet
                           9256 ; AOP_STK for _detect_zone_change_sloc1_1_0
   1E3C 1A                 9257 	ld	a,(de)
   1E3D F8 03              9258 	lda	hl,3(sp)
   1E3F 77                 9259 	ld	(hl),a
                           9260 ; genCmpEq
                           9261 ; AOP_STK for _detect_zone_change_sloc1_1_0
   1E40 7E                 9262 	ld	a,(hl) ; 2
   1E41 FE 01              9263 	cp	a,#0x01
   1E43 C2 48 1E           9264 	jp	nz,00145$
   1E46 18 03              9265 	jr	00146$
   1E48                    9266 00145$:
   1E48 C3 81 1E           9267 	jp	00111$
   1E4B                    9268 00146$:
                           9269 ; genCall
   1E4B CD 4C 10           9270 	call	_get_player_tile
   1E4E 4A                 9271 	ld	c,d
   1E4F 43                 9272 	ld	b,e
                           9273 ; genCmpEq
   1E50 78                 9274 	ld	a,b ; 2
   1E51 FE E3              9275 	cp	a,#0xE3
   1E53 C2 5D 1E           9276 	jp	nz,00147$
   1E56 79                 9277 	ld	a,c ; 2
                           9278 ; Rule 3
   1E57 B7                 9279 	or	a,a
   1E58 C2 5D 1E           9280 	jp	nz,00147$
   1E5B 18 03              9281 	jr	00148$
   1E5D                    9282 00147$:
   1E5D C3 81 1E           9283 	jp	00111$
   1E60                    9284 00148$:
                           9285 ;	src\\functions.c 477
                           9286 ; genIpush
   1E60 21 50 00           9287 	ld	hl,#_listezone + 0
   1E63 E5                 9288 	push	hl
                           9289 ; genCall
   1E64 CD F9 11           9290 	call	_set_zone
   1E67 E8 02              9291 	lda	sp,2(sp)
                           9292 ;	src\\functions.c 478
                           9293 ; genPlus
                           9294 ; genPlusIncr
   1E69 01 30 00           9295 	ld	bc,#_listepnj + 0 + 16
                           9296 ; genIpush
   1E6C C5                 9297 	push	bc
                           9298 ; genCall
   1E6D CD C4 11           9299 	call	_hide_pnj
   1E70 E8 02              9300 	lda	sp,2(sp)
                           9301 ;	src\\functions.c 479
                           9302 ; genIpush
   1E72 21 1B 01           9303 	ld	hl,#0x011B
   1E75 E5                 9304 	push	hl
                           9305 ; genCall
   1E76 CD A9 10           9306 	call	_set_player_tile
   1E79 E8 02              9307 	lda	sp,2(sp)
                           9308 ;	src\\functions.c 480
                           9309 ; genOr
                           9310 ; AOP_SFR for _LCDC_REG
                           9311 ; Type res[4] = l[4]&r[1]
                           9312 ; Size res[1] = l[1]&r[1]
   1E7B F0 00              9313 	ldh	a,(_LCDC_REG+0) ; x
   1E7D F6 80              9314 	or	a,#0x80
   1E7F E0 00              9315 	ldh	(_LCDC_REG+0),a
                           9316 ; genLabel
   1E81                    9317 00111$:
                           9318 ;	src\\functions.c 482
                           9319 ; genPlus
                           9320 ; genPlusIncr
   1E81 11 6E 00           9321 	ld	de,#_listezone + 0 + 30
                           9322 ; genPointerGet
                           9323 ; AOP_STK for _detect_zone_change_sloc2_1_0
   1E84 1A                 9324 	ld	a,(de)
   1E85 F8 02              9325 	lda	hl,2(sp)
   1E87 77                 9326 	ld	(hl),a
                           9327 ; genCmpEq
                           9328 ; AOP_STK for _detect_zone_change_sloc2_1_0
   1E88 7E                 9329 	ld	a,(hl) ; 2
   1E89 FE 01              9330 	cp	a,#0x01
   1E8B C2 90 1E           9331 	jp	nz,00149$
   1E8E 18 03              9332 	jr	00150$
   1E90                    9333 00149$:
   1E90 C3 C1 1E           9334 	jp	00114$
   1E93                    9335 00150$:
                           9336 ; genPlus
                           9337 ; AOP_STK for _detect_zone_change_sloc3_1_0
                           9338 ; genPlusIncr
                           9339 ;	genPlusIncr failed
   1E93 11 20 00           9340 	ld	de,#_listepnj + 0
   1E96 21 20 00           9341 	ld	hl,#0x0020
   1E99 19                 9342 	add	hl,de
   1E9A 7D                 9343 	ld	a,l
   1E9B 54                 9344 	ld	d,h
   1E9C F8 00              9345 	lda	hl,0(sp)
   1E9E 22                 9346 	ld	(hl+),a
   1E9F 72                 9347 	ld	(hl),d
                           9348 ; genPlus
                           9349 ; genPlusIncr
   1EA0 11 4F 00           9350 	ld	de,#_listepnj + 0 + 47
                           9351 ; genPointerGet
   1EA3 1A                 9352 	ld	a,(de)
   1EA4 4F                 9353 	ld	c,a
                           9354 ; genCmpEq
   1EA5 79                 9355 	ld	a,c ; 2
   1EA6 FE 01              9356 	cp	a,#0x01
   1EA8 C2 AD 1E           9357 	jp	nz,00151$
   1EAB 18 03              9358 	jr	00152$
   1EAD                    9359 00151$:
   1EAD C3 C1 1E           9360 	jp	00114$
   1EB0                    9361 00152$:
                           9362 ;	src\\functions.c 483
                           9363 ; genIpush
                           9364 ; AOP_STK for _detect_zone_change_sloc3_1_0
   1EB0 F8 00              9365 	lda	hl,0(sp)
   1EB2 2A                 9366 	ld	a,(hl+)
   1EB3 66                 9367 	ld	h,(hl)
   1EB4 6F                 9368 	ld	l,a
   1EB5 E5                 9369 	push	hl
                           9370 ; genCall
   1EB6 CD 33 11           9371 	call	_set_pnj
   1EB9 E8 02              9372 	lda	sp,2(sp)
                           9373 ;	src\\functions.c 484
                           9374 ; genOr
                           9375 ; AOP_SFR for _LCDC_REG
                           9376 ; Type res[4] = l[4]&r[1]
                           9377 ; Size res[1] = l[1]&r[1]
   1EBB F0 00              9378 	ldh	a,(_LCDC_REG+0) ; x
   1EBD F6 80              9379 	or	a,#0x80
   1EBF E0 00              9380 	ldh	(_LCDC_REG+0),a
                           9381 ; genLabel
   1EC1                    9382 00114$:
                           9383 ;	src\\functions.c 486
                           9384 ; genCmpEq
                           9385 ; AOP_STK for _detect_zone_change_sloc2_1_0
   1EC1 F8 02              9386 	lda	hl,2(sp)
   1EC3 7E                 9387 	ld	a,(hl)
   1EC4 B7                 9388 	or	a,a
   1EC5 C2 CA 1E           9389 	jp	nz,00153$
   1EC8 18 03              9390 	jr	00154$
   1ECA                    9391 00153$:
   1ECA C3 EE 1E           9392 	jp	00120$
   1ECD                    9393 00154$:
                           9394 ; genCmpEq
                           9395 ; AOP_STK for _detect_zone_change_sloc1_1_0
   1ECD F8 03              9396 	lda	hl,3(sp)
   1ECF 7E                 9397 	ld	a,(hl)
   1ED0 B7                 9398 	or	a,a
   1ED1 C2 D6 1E           9399 	jp	nz,00155$
   1ED4 18 03              9400 	jr	00156$
   1ED6                    9401 00155$:
   1ED6 C3 EE 1E           9402 	jp	00120$
   1ED9                    9403 00156$:
                           9404 ; genCmpEq
                           9405 ; AOP_STK for _detect_zone_change_sloc0_1_0
   1ED9 F8 04              9406 	lda	hl,4(sp)
   1EDB 7E                 9407 	ld	a,(hl)
   1EDC B7                 9408 	or	a,a
   1EDD C2 E2 1E           9409 	jp	nz,00157$
   1EE0 18 03              9410 	jr	00158$
   1EE2                    9411 00157$:
   1EE2 C3 EE 1E           9412 	jp	00120$
   1EE5                    9413 00158$:
                           9414 ;	src\\functions.c 487
                           9415 ; genPlus
                           9416 ; genPlusIncr
   1EE5 01 40 00           9417 	ld	bc,#_listepnj + 0 + 32
                           9418 ; genIpush
   1EE8 C5                 9419 	push	bc
                           9420 ; genCall
   1EE9 CD C4 11           9421 	call	_hide_pnj
   1EEC E8 02              9422 	lda	sp,2(sp)
                           9423 ; genLabel
   1EEE                    9424 00120$:
                           9425 ; genEndFunction
   1EEE E8 05              9426 	lda	sp,5(sp)
   1EF0 C1                 9427 	pop	bc
   1EF1 C9                 9428 	ret
   1EF2                    9429 ___detect_zone_change_end:
                           9430 ;	src\\functions.c 491
                           9431 ; genLabel
                           9432 ; genFunction
                           9433 ;	---------------------------------
                           9434 ; Function detect_proximity
                           9435 ; ---------------------------------
   1EF2                    9436 ___detect_proximity_start:
   1EF2                    9437 _detect_proximity:
   1EF2 C5                 9438 	push	bc
                           9439 	
                           9440 ;	src\\functions.c 492
                           9441 ; genCall
   1EF3 CD 53 0E           9442 	call	_proximity
   1EF6 4B                 9443 	ld	c,e
                           9444 ; genCast
                           9445 ; AOP_HL for _proxtest
   1EF7 21 12 00           9446 	ld	hl,#_proxtest + 0
   1EFA 71                 9447 	ld	(hl),c
   1EFB 23                 9448 	inc	hl
   1EFC 36 00              9449 	ld	(hl),#0x00
                           9450 ;	src\\functions.c 493
                           9451 ; genCmpEq
                           9452 ; AOP_HL for _proxtest
   1EFE 2B                 9453 	dec	hl
   1EFF 7E                 9454 	ld	a,(hl) ; 2
   1F00 FE 05              9455 	cp	a,#0x05
   1F02 C2 0B 1F           9456 	jp	nz,00109$
   1F05 23                 9457 	inc	hl
   1F06 7E                 9458 	ld	a,(hl) ; 2
                           9459 ; Rule 3
   1F07 B7                 9460 	or	a,a
                           9461 ; Rule 5
   1F08 CA 35 1F           9462 	jp	z,00105$
   1F0B                    9463 00109$:
                           9464 ;	src\\functions.c 495
                           9465 ; genCall
   1F0B CD 00 00           9466 	call	_joypad
   1F0E 4B                 9467 	ld	c,e
                           9468 ; genAnd
   1F0F 79                 9469 	ld	a,c
   1F10 CB 67              9470 	bit	4,a
   1F12 CA 35 1F           9471 	jp	z,00105$
                           9472 ;	src\\functions.c 496
                           9473 ; genLeftShift
                           9474 ; AOP_HL for _proxtest
   1F15 21 12 00           9475 	ld	hl,#_proxtest + 0
   1F18 4E                 9476 	ld	c,(hl)
   1F19 23                 9477 	inc	hl
   1F1A 46                 9478 	ld	b,(hl)
   1F1B 3E 05              9479 	ld	a,#0x04+1
   1F1D 18 05              9480 	jr	00111$
   1F1F                    9481 00110$:
   1F1F B7                 9482 	or	a,a
   1F20 CB 11              9483 	rl	c
   1F22 CB 10              9484 	rl	b
   1F24                    9485 00111$:
   1F24 3D                 9486 	dec	a
   1F25 20 F8              9487 	jr	nz,00110$
                           9488 ; genPlus
                           9489 ;	genPlusIncr failed
   1F27 3E 20              9490 	ld	a,#<_listepnj
   1F29 81                 9491 	add	a,c
   1F2A 4F                 9492 	ld	c,a
   1F2B 3E 00              9493 	ld	a,#>_listepnj
   1F2D 88                 9494 	adc	a,b
   1F2E 47                 9495 	ld	b,a
                           9496 ; genIpush
   1F2F C5                 9497 	push	bc
                           9498 ; genCall
   1F30 CD AD 19           9499 	call	_show_message
   1F33 E8 02              9500 	lda	sp,2(sp)
                           9501 ; genLabel
   1F35                    9502 00105$:
                           9503 ; genEndFunction
                           9504 	
   1F35 C1                 9505 	pop	bc
   1F36 C9                 9506 	ret
   1F37                    9507 ___detect_proximity_end:
                           9508 ;	src\\functions.c 503
                           9509 ; genLabel
                           9510 ; genFunction
                           9511 ;	---------------------------------
                           9512 ; Function detect_start
                           9513 ; ---------------------------------
   1F37                    9514 ___detect_start_start:
   1F37                    9515 _detect_start:
   1F37 C5                 9516 	push	bc
                           9517 	
                           9518 ;	src\\functions.c 504
                           9519 ; genIpush
   1F38 21 0A 00           9520 	ld	hl,#0x000A
   1F3B E5                 9521 	push	hl
                           9522 ; genIpush
                           9523 ; AOP_HL for _compteur_cycles
   1F3C 21 14 00           9524 	ld	hl,#_compteur_cycles + 0
   1F3F 2A                 9525 	ld	a,(hl+)
   1F40 66                 9526 	ld	h,(hl)
   1F41 6F                 9527 	ld	l,a
   1F42 E5                 9528 	push	hl
                           9529 ; genCall
   1F43 CD 00 00           9530 	call	__moduint
   1F46 42                 9531 	ld	b,d
   1F47 4B                 9532 	ld	c,e
   1F48 E8 04              9533 	lda	sp,4(sp)
                           9534 ; genCmpEq
   1F4A 79                 9535 	ld	a,c
   1F4B B0                 9536 	or	a,b
   1F4C C2 51 1F           9537 	jp	nz,00113$
   1F4F 18 03              9538 	jr	00114$
   1F51                    9539 00113$:
   1F51 C3 7E 1F           9540 	jp	00108$
   1F54                    9541 00114$:
                           9542 ;	src\\functions.c 505
                           9543 ; genCall
   1F54 CD 00 00           9544 	call	_joypad
   1F57 4B                 9545 	ld	c,e
                           9546 ; genAnd
   1F58 79                 9547 	ld	a,c
   1F59 CB 7F              9548 	bit	7,a
   1F5B CA 7E 1F           9549 	jp	z,00108$
                           9550 ;	src\\functions.c 506
                           9551 ; genCmpEq
                           9552 ; AOP_HL for _startbool
   1F5E 21 16 00           9553 	ld	hl,#_startbool + 0
   1F61 2A                 9554 	ld	a,(hl+)
   1F62 B6                 9555 	or	a,(hl)
   1F63 C2 68 1F           9556 	jp	nz,00115$
   1F66 18 03              9557 	jr	00116$
   1F68                    9558 00115$:
   1F68 C3 76 1F           9559 	jp	00102$
   1F6B                    9560 00116$:
                           9561 ;	src\\functions.c 507
                           9562 ; genAssign
                           9563 ; AOP_HL for _startbool
   1F6B 21 16 00           9564 	ld	hl,#_startbool + 0
   1F6E 36 01              9565 	ld	(hl),#0x01
   1F70 23                 9566 	inc	hl
   1F71 36 00              9567 	ld	(hl),#0x00
                           9568 ; genGoto
   1F73 C3 7E 1F           9569 	jp	00108$
                           9570 ; genLabel
   1F76                    9571 00102$:
                           9572 ;	src\\functions.c 510
                           9573 ; genAssign
                           9574 ; AOP_HL for _startbool
   1F76 21 16 00           9575 	ld	hl,#_startbool + 0
   1F79 36 00              9576 	ld	(hl),#0x00
   1F7B 23                 9577 	inc	hl
   1F7C 36 00              9578 	ld	(hl),#0x00
                           9579 ; genLabel
   1F7E                    9580 00108$:
                           9581 ; genEndFunction
                           9582 	
   1F7E C1                 9583 	pop	bc
   1F7F C9                 9584 	ret
   1F80                    9585 ___detect_start_end:
                           9586 ;	src\\functions.c 516
                           9587 ; genLabel
                           9588 ; genFunction
                           9589 ;	---------------------------------
                           9590 ; Function game_init
                           9591 ; ---------------------------------
   1F80                    9592 ___game_init_start:
   1F80                    9593 _game_init:
   1F80 C5                 9594 	push	bc
   1F81 E8 FD              9595 	lda	sp,-3(sp)
                           9596 ;	src\\functions.c 517
                           9597 ; genCall
   1F83 CD 00 00           9598 	call	_font_init
                           9599 ;	src\\functions.c 518
                           9600 ; genIpush
   1F86 21 00 00           9601 	ld	hl,#_font_min + 0
   1F89 E5                 9602 	push	hl
                           9603 ; genCall
   1F8A CD 00 00           9604 	call	_font_load
                           9605 ; AOP_HL for _min_font
   1F8D 21 19 00           9606 	ld	hl,#_min_font + 0 + 1
   1F90 72                 9607 	ld	(hl),d
   1F91 2B                 9608 	dec	hl
   1F92 73                 9609 	ld	(hl),e
   1F93 E8 02              9610 	lda	sp,2(sp)
                           9611 ;	src\\functions.c 519
                           9612 ; genIpush
                           9613 ; AOP_HL for _min_font
   1F95 2A                 9614 	ld	a,(hl+)
   1F96 66                 9615 	ld	h,(hl)
   1F97 6F                 9616 	ld	l,a
   1F98 E5                 9617 	push	hl
                           9618 ; genCall
   1F99 CD 00 00           9619 	call	_font_set
   1F9C E8 02              9620 	lda	sp,2(sp)
                           9621 ;	src\\functions.c 520
                           9622 ; genIpush
   1F9E 21 71 00           9623 	ld	hl,#_virgule + 0
   1FA1 E5                 9624 	push	hl
                           9625 ; genIpush
   1FA2 3E 01              9626 	ld	a,#0x01
   1FA4 F5                 9627 	push	af
   1FA5 33                 9628 	inc	sp
                           9629 ; genIpush
   1FA6 3E 01              9630 	ld	a,#0x01
   1FA8 F5                 9631 	push	af
   1FA9 33                 9632 	inc	sp
                           9633 ; genCall
   1FAA CD 00 00           9634 	call	_set_win_data
   1FAD E8 04              9635 	lda	sp,4(sp)
                           9636 ;	src\\functions.c 522
                           9637 ; genIpush
   1FAF 3E 42              9638 	ld	a,#0x42
   1FB1 F5                 9639 	push	af
   1FB2 33                 9640 	inc	sp
                           9641 ; genIpush
   1FB3 21 61 20           9642 	ld	hl,#__str_22 + 0
   1FB6 E5                 9643 	push	hl
                           9644 ; genCall
   1FB7 CD F9 18           9645 	call	_print_to_win
   1FBA E8 03              9646 	lda	sp,3(sp)
                           9647 ;	src\\functions.c 523
                           9648 ; genIpush
   1FBC 3E 80              9649 	ld	a,#0x80
   1FBE F5                 9650 	push	af
   1FBF 33                 9651 	inc	sp
                           9652 ; genCall
   1FC0 CD 00 00           9653 	call	_waitpad
   1FC3 E8 01              9654 	lda	sp,1(sp)
                           9655 ;	src\\functions.c 524
                           9656 ; genCall
   1FC5 CD 00 00           9657 	call	_waitpadup
                           9658 ;	src\\functions.c 525
                           9659 ; genCall
   1FC8 CD 92 19           9660 	call	_hide_win_text
                           9661 ;	src\\functions.c 527
                           9662 ; genAssign
                           9663 ; AOP_HL for _compteur_cycles
   1FCB 21 14 00           9664 	ld	hl,#_compteur_cycles + 0
   1FCE 36 00              9665 	ld	(hl),#0x00
   1FD0 23                 9666 	inc	hl
   1FD1 36 00              9667 	ld	(hl),#0x00
                           9668 ;	src\\functions.c 528
                           9669 ; genAssign
                           9670 ; AOP_HL for _startbool
   1FD3 21 16 00           9671 	ld	hl,#_startbool + 0
   1FD6 36 00              9672 	ld	(hl),#0x00
   1FD8 23                 9673 	inc	hl
   1FD9 36 00              9674 	ld	(hl),#0x00
                           9675 ;	src\\functions.c 530
                           9676 ; genIpush
   1FDB 21 01 00           9677 	ld	hl,#_groundtiles + 0
   1FDE E5                 9678 	push	hl
                           9679 ; genIpush
   1FDF 3E 07              9680 	ld	a,#0x07
   1FE1 F5                 9681 	push	af
   1FE2 33                 9682 	inc	sp
                           9683 ; genIpush
   1FE3 3E 27              9684 	ld	a,#0x27
   1FE5 F5                 9685 	push	af
   1FE6 33                 9686 	inc	sp
                           9687 ; genCall
   1FE7 CD 00 00           9688 	call	_set_bkg_data
   1FEA E8 04              9689 	lda	sp,4(sp)
                           9690 ;	src\\functions.c 531
                           9691 ; genIpush
   1FEC 21 50 00           9692 	ld	hl,#_listezone + 0
   1FEF E5                 9693 	push	hl
                           9694 ; genCall
   1FF0 CD F9 11           9695 	call	_set_zone
   1FF3 E8 02              9696 	lda	sp,2(sp)
                           9697 ;	src\\functions.c 532
                           9698 ; genIpush
   1FF5 21 89 07           9699 	ld	hl,#_bonhomme + 0
   1FF8 E5                 9700 	push	hl
                           9701 ; genIpush
   1FF9 3E 07              9702 	ld	a,#0x07
   1FFB F5                 9703 	push	af
   1FFC 33                 9704 	inc	sp
                           9705 ; genIpush
   1FFD 3E 00              9706 	ld	a,#0x00
   1FFF F5                 9707 	push	af
   2000 33                 9708 	inc	sp
                           9709 ; genCall
   2001 CD 00 00           9710 	call	_set_sprite_data
   2004 E8 04              9711 	lda	sp,4(sp)
                           9712 ;	src\\functions.c 533
                           9713 ; genIpush
   2006 3E 00              9714 	ld	a,#0x00
   2008 F5                 9715 	push	af
   2009 33                 9716 	inc	sp
                           9717 ; genIpush
   200A 3E 00              9718 	ld	a,#0x00
   200C F5                 9719 	push	af
   200D 33                 9720 	inc	sp
                           9721 ; genCall
   200E CD 00 00           9722 	call	_set_sprite_tile
   2011 E8 02              9723 	lda	sp,2(sp)
                           9724 ;	src\\functions.c 535
                           9725 ; genAssign (pointer)
   2013 11 0C 00           9726 	ld	de,#_player_location + 0
   2016 3E 58              9727 	ld	a,#0x58
   2018 12                 9728 	ld	(de),a
   2019 13                 9729 	inc	de
   201A 3E 00              9730 	ld	a,#0x00
   201C 12                 9731 	ld	(de),a
                           9732 ;	src\\functions.c 536
                           9733 ; genPlus
                           9734 ; genPlusIncr
   201D 01 0E 00           9735 	ld	bc,#_player_location + 0 + 2
                           9736 ; genAssign (pointer)
   2020 59                 9737 	ld	e,c
   2021 50                 9738 	ld	d,b
   2022 3E 50              9739 	ld	a,#0x50
   2024 12                 9740 	ld	(de),a
   2025 13                 9741 	inc	de
   2026 3E 00              9742 	ld	a,#0x00
   2028 12                 9743 	ld	(de),a
                           9744 ;	src\\functions.c 537
                           9745 ; genPointerGet
   2029 59                 9746 	ld	e,c
   202A 50                 9747 	ld	d,b
   202B 1A                 9748 	ld	a,(de)
   202C 4F                 9749 	ld	c,a
   202D 13                 9750 	inc	de
   202E 1A                 9751 	ld	a,(de)
   202F 47                 9752 	ld	b,a
                           9753 ; genCast
                           9754 ; AOP_STK for _game_init_sloc0_1_0
   2030 F8 02              9755 	lda	hl,2(sp)
   2032 71                 9756 	ld	(hl),c
                           9757 ; genPointerGet
                           9758 ; AOP_STK for _game_init_sloc1_1_0
   2033 11 0C 00           9759 	ld	de,#_player_location + 0
   2036 1A                 9760 	ld	a,(de)
   2037 2B                 9761 	dec	hl
   2038 2B                 9762 	dec	hl
   2039 77                 9763 	ld	(hl),a
   203A 13                 9764 	inc	de
   203B 1A                 9765 	ld	a,(de)
   203C 23                 9766 	inc	hl
   203D 77                 9767 	ld	(hl),a
                           9768 ; genCast
                           9769 ; AOP_STK for _game_init_sloc1_1_0
   203E 2B                 9770 	dec	hl
   203F 4E                 9771 	ld	c,(hl)
                           9772 ; genIpush
                           9773 ; AOP_STK for _game_init_sloc0_1_0
   2040 23                 9774 	inc	hl
   2041 23                 9775 	inc	hl
   2042 7E                 9776 	ld	a,(hl)
   2043 F5                 9777 	push	af
   2044 33                 9778 	inc	sp
                           9779 ; genIpush
   2045 79                 9780 	ld	a,c
   2046 F5                 9781 	push	af
   2047 33                 9782 	inc	sp
                           9783 ; genIpush
   2048 3E 00              9784 	ld	a,#0x00
   204A F5                 9785 	push	af
   204B 33                 9786 	inc	sp
                           9787 ; genCall
   204C CD 00 00           9788 	call	_move_sprite
   204F E8 03              9789 	lda	sp,3(sp)
                           9790 ;	src\\functions.c 538
                           9791 ; genOr
                           9792 ; AOP_SFR for _LCDC_REG
                           9793 ; Type res[4] = l[4]&r[1]
                           9794 ; Size res[1] = l[1]&r[1]
   2051 F0 00              9795 	ldh	a,(_LCDC_REG+0) ; x
   2053 F6 02              9796 	or	a,#0x02
   2055 E0 00              9797 	ldh	(_LCDC_REG+0),a
                           9798 ;	src\\functions.c 539
                           9799 ; genOr
                           9800 ; AOP_SFR for _LCDC_REG
                           9801 ; Type res[4] = l[4]&r[1]
                           9802 ; Size res[1] = l[1]&r[1]
   2057 F0 00              9803 	ldh	a,(_LCDC_REG+0) ; x
   2059 F6 80              9804 	or	a,#0x80
   205B E0 00              9805 	ldh	(_LCDC_REG+0),a
                           9806 ; genLabel
   205D                    9807 00101$:
                           9808 ; genEndFunction
   205D E8 03              9809 	lda	sp,3(sp)
   205F C1                 9810 	pop	bc
   2060 C9                 9811 	ret
   2061                    9812 ___game_init_end:
   2061                    9813 __str_22:
   2061 20 20 20 42 45 53  9814 	.ascii "   BEST GAME EVER        PRESS START    "
        54 20 47 41 4D 45
        20 45 56 45 52 20
        20 20 20 20 20 20
        20 50 52 45 53 53
        20 53 54 41 52 54
        20 20 20 20
   2089 00                 9815 	.db 0x00
                           9816 ;	src\\functions.c 543
                           9817 ; genLabel
                           9818 ; genFunction
                           9819 ;	---------------------------------
                           9820 ; Function show_epee
                           9821 ; ---------------------------------
   208A                    9822 ___show_epee_start:
   208A                    9823 _show_epee:
   208A C5                 9824 	push	bc
   208B E8 FB              9825 	lda	sp,-5(sp)
                           9826 ;	src\\functions.c 544
                           9827 ; genCall
   208D CD E5 0F           9828 	call	_get_player_direction
                           9829 ; AOP_STK for _show_epee_dir_1_1
   2090 F8 04              9830 	lda	hl,4(sp)
   2092 73                 9831 	ld	(hl),e
                           9832 ;	src\\functions.c 545
                           9833 ; genIpush
   2093 21 F9 07           9834 	ld	hl,#_epee + 0
   2096 E5                 9835 	push	hl
                           9836 ; genIpush
   2097 3E 04              9837 	ld	a,#0x04
   2099 F5                 9838 	push	af
   209A 33                 9839 	inc	sp
                           9840 ; genIpush
   209B 3E 0A              9841 	ld	a,#0x0A
   209D F5                 9842 	push	af
   209E 33                 9843 	inc	sp
                           9844 ; genCall
   209F CD 00 00           9845 	call	_set_sprite_data
   20A2 E8 04              9846 	lda	sp,4(sp)
                           9847 ;	src\\functions.c 546
                           9848 ; genIpush
   20A4 3E 0A              9849 	ld	a,#0x0A
   20A6 F5                 9850 	push	af
   20A7 33                 9851 	inc	sp
                           9852 ; genIpush
   20A8 3E 02              9853 	ld	a,#0x02
   20AA F5                 9854 	push	af
   20AB 33                 9855 	inc	sp
                           9856 ; genCall
   20AC CD 00 00           9857 	call	_set_sprite_tile
   20AF E8 02              9858 	lda	sp,2(sp)
                           9859 ;	src\\functions.c 547
                           9860 ; genCmpEq
                           9861 ; AOP_STK for _show_epee_dir_1_1
   20B1 F8 04              9862 	lda	hl,4(sp)
   20B3 7E                 9863 	ld	a,(hl) ; 2
   20B4 FE 75              9864 	cp	a,#0x75
   20B6 C2 BB 20           9865 	jp	nz,00115$
   20B9 18 03              9866 	jr	00116$
   20BB                    9867 00115$:
   20BB C3 09 21           9868 	jp	00102$
   20BE                    9869 00116$:
                           9870 ;	src\\functions.c 548
                           9871 ; genIpush
   20BE 3E 0A              9872 	ld	a,#0x0A
   20C0 F5                 9873 	push	af
   20C1 33                 9874 	inc	sp
                           9875 ; genIpush
   20C2 3E 02              9876 	ld	a,#0x02
   20C4 F5                 9877 	push	af
   20C5 33                 9878 	inc	sp
                           9879 ; genCall
   20C6 CD 00 00           9880 	call	_set_sprite_tile
   20C9 E8 02              9881 	lda	sp,2(sp)
                           9882 ;	src\\functions.c 549
                           9883 ; genPointerGet
   20CB 11 0C 00           9884 	ld	de,#_player_location + 0
   20CE 1A                 9885 	ld	a,(de)
   20CF 47                 9886 	ld	b,a
   20D0 13                 9887 	inc	de
   20D1 1A                 9888 	ld	a,(de)
   20D2 4F                 9889 	ld	c,a
                           9890 ; genCast
                           9891 ; Removed redundent load
                           9892 ; genAssign (pointer)
   20D3 11 1C 00           9893 	ld	de,#_epee_coords + 0
   20D6 78                 9894 	ld	a,b
   20D7 12                 9895 	ld	(de),a
                           9896 ;	src\\functions.c 550
                           9897 ; genPlus
                           9898 ; AOP_STK for _show_epee_sloc0_1_0
                           9899 ; genPlusIncr
                           9900 ;	genPlusIncr failed
   20D8 11 1C 00           9901 	ld	de,#_epee_coords + 0
   20DB 21 01 00           9902 	ld	hl,#0x0001
   20DE 19                 9903 	add	hl,de
   20DF 7D                 9904 	ld	a,l
   20E0 54                 9905 	ld	d,h
   20E1 F8 02              9906 	lda	hl,2(sp)
   20E3 22                 9907 	ld	(hl+),a
   20E4 72                 9908 	ld	(hl),d
                           9909 ; genPlus
                           9910 ; genPlusIncr
   20E5 11 0E 00           9911 	ld	de,#_player_location + 0 + 2
                           9912 ; genPointerGet
                           9913 ; AOP_STK for _show_epee_sloc1_1_0
                           9914 ; Removed redundent load
                           9915 ; Removed redundent load
   20E8 1A                 9916 	ld	a,(de)
   20E9 F8 00              9917 	lda	hl,0(sp)
   20EB 77                 9918 	ld	(hl),a
   20EC 13                 9919 	inc	de
   20ED 1A                 9920 	ld	a,(de)
   20EE 23                 9921 	inc	hl
   20EF 77                 9922 	ld	(hl),a
                           9923 ; genMinus
                           9924 ; AOP_STK for _show_epee_sloc1_1_0
   20F0 2B                 9925 	dec	hl
   20F1 5E                 9926 	ld	e,(hl)
   20F2 23                 9927 	inc	hl
   20F3 56                 9928 	ld	d,(hl)
   20F4 21 08 00           9929 	ld	hl,#0x0008
   20F7 7B                 9930 	ld	a,e
   20F8 95                 9931 	sub	a,l
   20F9 5F                 9932 	ld	e,a
   20FA 7A                 9933 	ld	a,d
   20FB 9C                 9934 	sbc	a,h
   20FC F8 01              9935 	lda	hl,1(sp)
   20FE 77                 9936 	ld	(hl),a
   20FF 2B                 9937 	dec	hl
   2100 73                 9938 	ld	(hl),e
                           9939 ; genCast
                           9940 ; AOP_STK for _show_epee_sloc1_1_0
   2101 46                 9941 	ld	b,(hl)
                           9942 ; genAssign (pointer)
                           9943 ; AOP_STK for _show_epee_sloc0_1_0
   2102 23                 9944 	inc	hl
   2103 23                 9945 	inc	hl
   2104 5E                 9946 	ld	e,(hl)
   2105 23                 9947 	inc	hl
   2106 56                 9948 	ld	d,(hl)
   2107 78                 9949 	ld	a,b
   2108 12                 9950 	ld	(de),a
                           9951 ; genLabel
   2109                    9952 00102$:
                           9953 ;	src\\functions.c 553
                           9954 ; genCmpEq
                           9955 ; AOP_STK for _show_epee_dir_1_1
   2109 F8 04              9956 	lda	hl,4(sp)
   210B 7E                 9957 	ld	a,(hl) ; 2
   210C FE 64              9958 	cp	a,#0x64
   210E C2 13 21           9959 	jp	nz,00117$
   2111 18 03              9960 	jr	00118$
   2113                    9961 00117$:
   2113 C3 63 21           9962 	jp	00104$
   2116                    9963 00118$:
                           9964 ;	src\\functions.c 554
                           9965 ; genIpush
   2116 3E 0B              9966 	ld	a,#0x0B
   2118 F5                 9967 	push	af
   2119 33                 9968 	inc	sp
                           9969 ; genIpush
   211A 3E 02              9970 	ld	a,#0x02
   211C F5                 9971 	push	af
   211D 33                 9972 	inc	sp
                           9973 ; genCall
   211E CD 00 00           9974 	call	_set_sprite_tile
   2121 E8 02              9975 	lda	sp,2(sp)
                           9976 ;	src\\functions.c 555
                           9977 ; genPointerGet
                           9978 ; AOP_STK for _show_epee_sloc1_1_0
   2123 11 0C 00           9979 	ld	de,#_player_location + 0
   2126 1A                 9980 	ld	a,(de)
   2127 F8 00              9981 	lda	hl,0(sp)
   2129 77                 9982 	ld	(hl),a
   212A 13                 9983 	inc	de
   212B 1A                 9984 	ld	a,(de)
   212C 23                 9985 	inc	hl
   212D 77                 9986 	ld	(hl),a
                           9987 ; genCast
                           9988 ; AOP_STK for _show_epee_sloc1_1_0
   212E 2B                 9989 	dec	hl
   212F 46                 9990 	ld	b,(hl)
                           9991 ; genAssign (pointer)
   2130 11 1C 00           9992 	ld	de,#_epee_coords + 0
   2133 78                 9993 	ld	a,b
   2134 12                 9994 	ld	(de),a
                           9995 ;	src\\functions.c 556
                           9996 ; genPlus
                           9997 ; AOP_STK for _show_epee_sloc1_1_0
                           9998 ; genPlusIncr
                           9999 ;	genPlusIncr failed
   2135 11 1C 00          10000 	ld	de,#_epee_coords + 0
   2138 21 01 00          10001 	ld	hl,#0x0001
   213B 19                10002 	add	hl,de
   213C 7D                10003 	ld	a,l
   213D 54                10004 	ld	d,h
   213E F8 00             10005 	lda	hl,0(sp)
   2140 22                10006 	ld	(hl+),a
   2141 72                10007 	ld	(hl),d
                          10008 ; genPlus
                          10009 ; genPlusIncr
   2142 11 0E 00          10010 	ld	de,#_player_location + 0 + 2
                          10011 ; genPointerGet
                          10012 ; AOP_STK for _show_epee_sloc0_1_0
                          10013 ; Removed redundent load
                          10014 ; Removed redundent load
   2145 1A                10015 	ld	a,(de)
   2146 23                10016 	inc	hl
   2147 77                10017 	ld	(hl),a
   2148 13                10018 	inc	de
   2149 1A                10019 	ld	a,(de)
   214A 23                10020 	inc	hl
   214B 77                10021 	ld	(hl),a
                          10022 ; genPlus
                          10023 ; AOP_STK for _show_epee_sloc0_1_0
                          10024 ; genPlusIncr
                          10025 ;	genPlusIncr failed
   214C 2B                10026 	dec	hl
   214D 5E                10027 	ld	e,(hl)
   214E 23                10028 	inc	hl
   214F 56                10029 	ld	d,(hl)
   2150 21 08 00          10030 	ld	hl,#0x0008
   2153 19                10031 	add	hl,de
   2154 7D                10032 	ld	a,l
   2155 54                10033 	ld	d,h
   2156 F8 02             10034 	lda	hl,2(sp)
   2158 22                10035 	ld	(hl+),a
   2159 72                10036 	ld	(hl),d
                          10037 ; genCast
                          10038 ; AOP_STK for _show_epee_sloc0_1_0
   215A 2B                10039 	dec	hl
   215B 46                10040 	ld	b,(hl)
                          10041 ; genAssign (pointer)
                          10042 ; AOP_STK for _show_epee_sloc1_1_0
   215C 2B                10043 	dec	hl
   215D 2B                10044 	dec	hl
   215E 5E                10045 	ld	e,(hl)
   215F 23                10046 	inc	hl
   2160 56                10047 	ld	d,(hl)
   2161 78                10048 	ld	a,b
   2162 12                10049 	ld	(de),a
                          10050 ; genLabel
   2163                   10051 00104$:
                          10052 ;	src\\functions.c 559
                          10053 ; genCmpEq
                          10054 ; AOP_STK for _show_epee_dir_1_1
   2163 F8 04             10055 	lda	hl,4(sp)
   2165 7E                10056 	ld	a,(hl) ; 2
   2166 FE 72             10057 	cp	a,#0x72
   2168 C2 6D 21          10058 	jp	nz,00119$
   216B 18 03             10059 	jr	00120$
   216D                   10060 00119$:
   216D C3 BD 21          10061 	jp	00106$
   2170                   10062 00120$:
                          10063 ;	src\\functions.c 560
                          10064 ; genIpush
   2170 3E 0C             10065 	ld	a,#0x0C
   2172 F5                10066 	push	af
   2173 33                10067 	inc	sp
                          10068 ; genIpush
   2174 3E 02             10069 	ld	a,#0x02
   2176 F5                10070 	push	af
   2177 33                10071 	inc	sp
                          10072 ; genCall
   2178 CD 00 00          10073 	call	_set_sprite_tile
   217B E8 02             10074 	lda	sp,2(sp)
                          10075 ;	src\\functions.c 561
                          10076 ; genPointerGet
                          10077 ; AOP_STK for _show_epee_sloc1_1_0
   217D 11 0C 00          10078 	ld	de,#_player_location + 0
   2180 1A                10079 	ld	a,(de)
   2181 F8 00             10080 	lda	hl,0(sp)
   2183 77                10081 	ld	(hl),a
   2184 13                10082 	inc	de
   2185 1A                10083 	ld	a,(de)
   2186 23                10084 	inc	hl
   2187 77                10085 	ld	(hl),a
                          10086 ; genPlus
                          10087 ; AOP_STK for _show_epee_sloc1_1_0
                          10088 ; genPlusIncr
                          10089 ;	genPlusIncr failed
   2188 2B                10090 	dec	hl
   2189 5E                10091 	ld	e,(hl)
   218A 23                10092 	inc	hl
   218B 56                10093 	ld	d,(hl)
   218C 21 08 00          10094 	ld	hl,#0x0008
   218F 19                10095 	add	hl,de
   2190 7D                10096 	ld	a,l
   2191 54                10097 	ld	d,h
   2192 F8 00             10098 	lda	hl,0(sp)
   2194 22                10099 	ld	(hl+),a
   2195 72                10100 	ld	(hl),d
                          10101 ; genCast
                          10102 ; AOP_STK for _show_epee_sloc1_1_0
   2196 2B                10103 	dec	hl
   2197 46                10104 	ld	b,(hl)
                          10105 ; genAssign (pointer)
   2198 11 1C 00          10106 	ld	de,#_epee_coords + 0
   219B 78                10107 	ld	a,b
   219C 12                10108 	ld	(de),a
                          10109 ;	src\\functions.c 562
                          10110 ; genPlus
                          10111 ; AOP_STK for _show_epee_sloc1_1_0
                          10112 ; genPlusIncr
                          10113 ;	genPlusIncr failed
   219D 11 1C 00          10114 	ld	de,#_epee_coords + 0
   21A0 21 01 00          10115 	ld	hl,#0x0001
   21A3 19                10116 	add	hl,de
   21A4 7D                10117 	ld	a,l
   21A5 54                10118 	ld	d,h
   21A6 F8 00             10119 	lda	hl,0(sp)
   21A8 22                10120 	ld	(hl+),a
   21A9 72                10121 	ld	(hl),d
                          10122 ; genPlus
                          10123 ; genPlusIncr
   21AA 11 0E 00          10124 	ld	de,#_player_location + 0 + 2
                          10125 ; genPointerGet
                          10126 ; AOP_STK for _show_epee_sloc0_1_0
                          10127 ; Removed redundent load
                          10128 ; Removed redundent load
   21AD 1A                10129 	ld	a,(de)
   21AE 23                10130 	inc	hl
   21AF 77                10131 	ld	(hl),a
   21B0 13                10132 	inc	de
   21B1 1A                10133 	ld	a,(de)
   21B2 23                10134 	inc	hl
   21B3 77                10135 	ld	(hl),a
                          10136 ; genCast
                          10137 ; AOP_STK for _show_epee_sloc0_1_0
   21B4 2B                10138 	dec	hl
   21B5 46                10139 	ld	b,(hl)
                          10140 ; genAssign (pointer)
                          10141 ; AOP_STK for _show_epee_sloc1_1_0
   21B6 2B                10142 	dec	hl
   21B7 2B                10143 	dec	hl
   21B8 5E                10144 	ld	e,(hl)
   21B9 23                10145 	inc	hl
   21BA 56                10146 	ld	d,(hl)
   21BB 78                10147 	ld	a,b
   21BC 12                10148 	ld	(de),a
                          10149 ; genLabel
   21BD                   10150 00106$:
                          10151 ;	src\\functions.c 565
                          10152 ; genCmpEq
                          10153 ; AOP_STK for _show_epee_dir_1_1
   21BD F8 04             10154 	lda	hl,4(sp)
   21BF 7E                10155 	ld	a,(hl) ; 2
   21C0 FE 6C             10156 	cp	a,#0x6C
   21C2 C2 C7 21          10157 	jp	nz,00121$
   21C5 18 03             10158 	jr	00122$
   21C7                   10159 00121$:
   21C7 C3 19 22          10160 	jp	00108$
   21CA                   10161 00122$:
                          10162 ;	src\\functions.c 566
                          10163 ; genIpush
   21CA 3E 0D             10164 	ld	a,#0x0D
   21CC F5                10165 	push	af
   21CD 33                10166 	inc	sp
                          10167 ; genIpush
   21CE 3E 02             10168 	ld	a,#0x02
   21D0 F5                10169 	push	af
   21D1 33                10170 	inc	sp
                          10171 ; genCall
   21D2 CD 00 00          10172 	call	_set_sprite_tile
   21D5 E8 02             10173 	lda	sp,2(sp)
                          10174 ;	src\\functions.c 567
                          10175 ; genPointerGet
                          10176 ; AOP_STK for _show_epee_sloc1_1_0
   21D7 11 0C 00          10177 	ld	de,#_player_location + 0
   21DA 1A                10178 	ld	a,(de)
   21DB F8 00             10179 	lda	hl,0(sp)
   21DD 77                10180 	ld	(hl),a
   21DE 13                10181 	inc	de
   21DF 1A                10182 	ld	a,(de)
   21E0 23                10183 	inc	hl
   21E1 77                10184 	ld	(hl),a
                          10185 ; genMinus
                          10186 ; AOP_STK for _show_epee_sloc1_1_0
   21E2 2B                10187 	dec	hl
   21E3 5E                10188 	ld	e,(hl)
   21E4 23                10189 	inc	hl
   21E5 56                10190 	ld	d,(hl)
   21E6 21 08 00          10191 	ld	hl,#0x0008
   21E9 7B                10192 	ld	a,e
   21EA 95                10193 	sub	a,l
   21EB 5F                10194 	ld	e,a
   21EC 7A                10195 	ld	a,d
   21ED 9C                10196 	sbc	a,h
   21EE F8 01             10197 	lda	hl,1(sp)
   21F0 77                10198 	ld	(hl),a
   21F1 2B                10199 	dec	hl
   21F2 73                10200 	ld	(hl),e
                          10201 ; genCast
                          10202 ; AOP_STK for _show_epee_sloc1_1_0
   21F3 46                10203 	ld	b,(hl)
                          10204 ; genAssign (pointer)
   21F4 11 1C 00          10205 	ld	de,#_epee_coords + 0
   21F7 78                10206 	ld	a,b
   21F8 12                10207 	ld	(de),a
                          10208 ;	src\\functions.c 568
                          10209 ; genPlus
                          10210 ; AOP_STK for _show_epee_sloc1_1_0
                          10211 ; genPlusIncr
                          10212 ;	genPlusIncr failed
   21F9 11 1C 00          10213 	ld	de,#_epee_coords + 0
   21FC 21 01 00          10214 	ld	hl,#0x0001
   21FF 19                10215 	add	hl,de
   2200 7D                10216 	ld	a,l
   2201 54                10217 	ld	d,h
   2202 F8 00             10218 	lda	hl,0(sp)
   2204 22                10219 	ld	(hl+),a
   2205 72                10220 	ld	(hl),d
                          10221 ; genPlus
                          10222 ; genPlusIncr
   2206 11 0E 00          10223 	ld	de,#_player_location + 0 + 2
                          10224 ; genPointerGet
                          10225 ; AOP_STK for _show_epee_sloc0_1_0
                          10226 ; Removed redundent load
                          10227 ; Removed redundent load
   2209 1A                10228 	ld	a,(de)
   220A 23                10229 	inc	hl
   220B 77                10230 	ld	(hl),a
   220C 13                10231 	inc	de
   220D 1A                10232 	ld	a,(de)
   220E 23                10233 	inc	hl
   220F 77                10234 	ld	(hl),a
                          10235 ; genCast
                          10236 ; AOP_STK for _show_epee_sloc0_1_0
   2210 2B                10237 	dec	hl
   2211 46                10238 	ld	b,(hl)
                          10239 ; genAssign (pointer)
                          10240 ; AOP_STK for _show_epee_sloc1_1_0
   2212 2B                10241 	dec	hl
   2213 2B                10242 	dec	hl
   2214 5E                10243 	ld	e,(hl)
   2215 23                10244 	inc	hl
   2216 56                10245 	ld	d,(hl)
   2217 78                10246 	ld	a,b
   2218 12                10247 	ld	(de),a
                          10248 ; genLabel
   2219                   10249 00108$:
                          10250 ;	src\\functions.c 572
                          10251 ; genPlus
                          10252 ; genPlusIncr
   2219 11 1D 00          10253 	ld	de,#_epee_coords + 0 + 1
                          10254 ; genPointerGet
                          10255 ; AOP_STK for _show_epee_sloc1_1_0
   221C 1A                10256 	ld	a,(de)
   221D F8 00             10257 	lda	hl,0(sp)
   221F 77                10258 	ld	(hl),a
                          10259 ; genPointerGet
   2220 11 1C 00          10260 	ld	de,#_epee_coords + 0
   2223 1A                10261 	ld	a,(de)
   2224 47                10262 	ld	b,a
                          10263 ; genIpush
                          10264 ; AOP_STK for _show_epee_sloc1_1_0
   2225 7E                10265 	ld	a,(hl)
   2226 F5                10266 	push	af
   2227 33                10267 	inc	sp
                          10268 ; genIpush
   2228 78                10269 	ld	a,b
   2229 F5                10270 	push	af
   222A 33                10271 	inc	sp
                          10272 ; genIpush
   222B 3E 02             10273 	ld	a,#0x02
   222D F5                10274 	push	af
   222E 33                10275 	inc	sp
                          10276 ; genCall
   222F CD 00 00          10277 	call	_move_sprite
   2232 E8 03             10278 	lda	sp,3(sp)
                          10279 ; genLabel
   2234                   10280 00109$:
                          10281 ; genEndFunction
   2234 E8 05             10282 	lda	sp,5(sp)
   2236 C1                10283 	pop	bc
   2237 C9                10284 	ret
   2238                   10285 ___show_epee_end:
                          10286 ;	src\\functions.c 575
                          10287 ; genLabel
                          10288 ; genFunction
                          10289 ;	---------------------------------
                          10290 ; Function hide_epee
                          10291 ; ---------------------------------
   2238                   10292 ___hide_epee_start:
   2238                   10293 _hide_epee:
                          10294 	
                          10295 ;	src\\functions.c 576
                          10296 ; genIpush
   2238 3E 07             10297 	ld	a,#0x07
   223A F5                10298 	push	af
   223B 33                10299 	inc	sp
                          10300 ; genIpush
   223C 3E 02             10301 	ld	a,#0x02
   223E F5                10302 	push	af
   223F 33                10303 	inc	sp
                          10304 ; genCall
   2240 CD 00 00          10305 	call	_set_sprite_tile
   2243 E8 02             10306 	lda	sp,2(sp)
                          10307 ; genLabel
   2245                   10308 00101$:
                          10309 ; genEndFunction
                          10310 	
   2245 C9                10311 	ret
   2246                   10312 ___hide_epee_end:
                          10313 ;	src\\functions.c 579
                          10314 ; genLabel
                          10315 ; genFunction
                          10316 ;	---------------------------------
                          10317 ; Function detect_epee_collision
                          10318 ; ---------------------------------
   2246                   10319 ___detect_epee_collision_start:
   2246                   10320 _detect_epee_collision:
   2246 C5                10321 	push	bc
   2247 E8 FC             10322 	lda	sp,-4(sp)
                          10323 ;	src\\functions.c 581
                          10324 ; genAssign
                          10325 ; AOP_STK for _detect_epee_collision_iter_1_1
   2249 F8 03             10326 	lda	hl,3(sp)
   224B 36 00             10327 	ld	(hl),#0x00
                          10328 ; genLabel
   224D                   10329 00109$:
                          10330 ; genAssign
                          10331 ; AOP_HL for _sizelistepnj
   224D 21 89 0C          10332 	ld	hl,#_sizelistepnj + 0
   2250 46                10333 	ld	b,(hl)
                          10334 ; genCmpLt
                          10335 ; AOP_STK for _detect_epee_collision_iter_1_1
   2251 AF                10336 	xor	a,a
   2252 F8 03             10337 	lda	hl,3(sp)
   2254 7E                10338 	ld	a,(hl)
   2255 98                10339 	sbc	a,b ; 2
   2256 D2 0B 23          10340 	jp	nc,00113$
                          10341 ;	src\\functions.c 582
                          10342 ; genLeftShift
                          10343 ; AOP_STK for _detect_epee_collision_iter_1_1
   2259 7E                10344 	ld	a,(hl)
   225A CB 17             10345 	rl	a
   225C CB 17             10346 	rl	a
   225E CB 17             10347 	rl	a
   2260 CB 17             10348 	rl	a
   2262 E6 F0             10349 	and	a,#0xF0
   2264 47                10350 	ld	b,a
                          10351 ; genPlus
                          10352 ; AOP_STK for _detect_epee_collision_sloc0_1_0
                          10353 ;	genPlusIncr failed
   2265 11 20 00          10354 	ld	de,#_listepnj + 0
   2268 68                10355 	ld	l,b
   2269 26 00             10356 	ld	h,#0x00
   226B 19                10357 	add	hl,de
   226C 7D                10358 	ld	a,l
   226D 54                10359 	ld	d,h
   226E F8 01             10360 	lda	hl,1(sp)
   2270 22                10361 	ld	(hl+),a
   2271 72                10362 	ld	(hl),d
                          10363 ; genPlus
                          10364 ; AOP_STK for _detect_epee_collision_sloc0_1_0
                          10365 ; genPlusIncr
                          10366 ;	genPlusIncr failed
   2272 2B                10367 	dec	hl
   2273 5E                10368 	ld	e,(hl)
   2274 23                10369 	inc	hl
   2275 56                10370 	ld	d,(hl)
   2276 21 06 00          10371 	ld	hl,#0x0006
   2279 19                10372 	add	hl,de
   227A 5D                10373 	ld	e,l
   227B 54                10374 	ld	d,h
                          10375 ; genPointerGet
   227C 1A                10376 	ld	a,(de)
   227D 4F                10377 	ld	c,a
                          10378 ; genCmpEq
   227E 79                10379 	ld	a,c ; 2
   227F FE 01             10380 	cp	a,#0x01
   2281 C2 86 22          10381 	jp	nz,00123$
   2284 18 03             10382 	jr	00124$
   2286                   10383 00123$:
   2286 C3 05 23          10384 	jp	00111$
   2289                   10385 00124$:
                          10386 ; genPlus
                          10387 ; AOP_STK for _detect_epee_collision_sloc0_1_0
                          10388 ; genPlusIncr
                          10389 ;	genPlusIncr failed
   2289 F8 01             10390 	lda	hl,1(sp)
   228B 5E                10391 	ld	e,(hl)
   228C 23                10392 	inc	hl
   228D 56                10393 	ld	d,(hl)
   228E 21 0E 00          10394 	ld	hl,#0x000E
   2291 19                10395 	add	hl,de
   2292 5D                10396 	ld	e,l
   2293 54                10397 	ld	d,h
                          10398 ; genPointerGet
   2294 1A                10399 	ld	a,(de)
   2295 4F                10400 	ld	c,a
                          10401 ; genCmpEq
   2296 79                10402 	ld	a,c
   2297 B7                10403 	or	a,a
   2298 C2 9D 22          10404 	jp	nz,00125$
   229B 18 03             10405 	jr	00126$
   229D                   10406 00125$:
   229D C3 05 23          10407 	jp	00111$
   22A0                   10408 00126$:
                          10409 ;	src\\functions.c 583
                          10410 ; genPointerGet
                          10411 ; AOP_STK for _detect_epee_collision_sloc1_1_0
   22A0 11 1C 00          10412 	ld	de,#_epee_coords + 0
   22A3 1A                10413 	ld	a,(de)
   22A4 F8 00             10414 	lda	hl,0(sp)
                          10415 ; genPlus
                          10416 ; AOP_STK for _detect_epee_collision_sloc0_1_0
                          10417 ; genPlusIncr
                          10418 ;	genPlusIncr failed
   22A6 22                10419 	ld	(hl+),a
   22A7 5E                10420 	ld	e,(hl)
   22A8 23                10421 	inc	hl
   22A9 56                10422 	ld	d,(hl)
   22AA 21 04 00          10423 	ld	hl,#0x0004
   22AD 19                10424 	add	hl,de
   22AE 5D                10425 	ld	e,l
   22AF 54                10426 	ld	d,h
                          10427 ; genPointerGet
   22B0 1A                10428 	ld	a,(de)
   22B1 47                10429 	ld	b,a
                          10430 ; genPlus
                          10431 ; genPlusIncr
                          10432 ;	genPlusIncr failed
   22B2 78                10433 	ld	a,b
   22B3 C6 04             10434 	add	a,#0x04
   22B5 4F                10435 	ld	c,a
                          10436 ; genCmpGt
                          10437 ; AOP_STK for _detect_epee_collision_sloc1_1_0
   22B6 AF                10438 	xor	a,a
   22B7 79                10439 	ld	a,c
   22B8 F8 00             10440 	lda	hl,0(sp)
   22BA 9E                10441 	sbc	a,(hl) ; 2
   22BB DA 05 23          10442 	jp	c,00111$
                          10443 ; genMinus
   22BE 78                10444 	ld	a,b
   22BF C6 FC             10445 	add	a,#0xFC
   22C1 47                10446 	ld	b,a
                          10447 ; genCmpLt
                          10448 ; AOP_STK for _detect_epee_collision_sloc1_1_0
   22C2 AF                10449 	xor	a,a
   22C3 7E                10450 	ld	a,(hl)
   22C4 98                10451 	sbc	a,b ; 2
   22C5 DA 05 23          10452 	jp	c,00111$
                          10453 ; genPlus
                          10454 ; genPlusIncr
   22C8 11 1D 00          10455 	ld	de,#_epee_coords + 0 + 1
                          10456 ; genPointerGet
                          10457 ; AOP_STK for _detect_epee_collision_sloc1_1_0
   22CB 1A                10458 	ld	a,(de)
                          10459 ; genPlus
                          10460 ; AOP_STK for _detect_epee_collision_sloc0_1_0
                          10461 ; genPlusIncr
                          10462 ;	genPlusIncr failed
   22CC 22                10463 	ld	(hl+),a
   22CD 5E                10464 	ld	e,(hl)
   22CE 23                10465 	inc	hl
   22CF 56                10466 	ld	d,(hl)
   22D0 21 05 00          10467 	ld	hl,#0x0005
   22D3 19                10468 	add	hl,de
   22D4 5D                10469 	ld	e,l
   22D5 54                10470 	ld	d,h
                          10471 ; genPointerGet
   22D6 1A                10472 	ld	a,(de)
   22D7 47                10473 	ld	b,a
                          10474 ; genPlus
                          10475 ; genPlusIncr
                          10476 ;	genPlusIncr failed
   22D8 78                10477 	ld	a,b
   22D9 C6 04             10478 	add	a,#0x04
   22DB 4F                10479 	ld	c,a
                          10480 ; genCmpGt
                          10481 ; AOP_STK for _detect_epee_collision_sloc1_1_0
   22DC AF                10482 	xor	a,a
   22DD 79                10483 	ld	a,c
   22DE F8 00             10484 	lda	hl,0(sp)
   22E0 9E                10485 	sbc	a,(hl) ; 2
   22E1 DA 05 23          10486 	jp	c,00111$
                          10487 ; genMinus
   22E4 78                10488 	ld	a,b
   22E5 C6 FC             10489 	add	a,#0xFC
   22E7 47                10490 	ld	b,a
                          10491 ; genCmpLt
                          10492 ; AOP_STK for _detect_epee_collision_sloc1_1_0
   22E8 AF                10493 	xor	a,a
   22E9 7E                10494 	ld	a,(hl)
   22EA 98                10495 	sbc	a,b ; 2
   22EB DA 05 23          10496 	jp	c,00111$
                          10497 ;	src\\functions.c 584
                          10498 ; genPlus
                          10499 ; genPlusIncr
   22EE 01 40 00          10500 	ld	bc,#_listepnj + 0 + 32
                          10501 ; genIpush
   22F1 C5                10502 	push	bc
                          10503 ; genCall
   22F2 CD C4 11          10504 	call	_hide_pnj
   22F5 E8 02             10505 	lda	sp,2(sp)
                          10506 ;	src\\functions.c 585
                          10507 ; genPlus
                          10508 ; AOP_STK for _detect_epee_collision_sloc0_1_0
                          10509 ; genPlusIncr
                          10510 ;	genPlusIncr failed
   22F7 F8 01             10511 	lda	hl,1(sp)
   22F9 5E                10512 	ld	e,(hl)
   22FA 23                10513 	inc	hl
   22FB 56                10514 	ld	d,(hl)
   22FC 21 0F 00          10515 	ld	hl,#0x000F
   22FF 19                10516 	add	hl,de
   2300 5D                10517 	ld	e,l
   2301 54                10518 	ld	d,h
                          10519 ; genAssign (pointer)
   2302 3E 00             10520 	ld	a,#0x00
   2304 12                10521 	ld	(de),a
                          10522 ; genLabel
   2305                   10523 00111$:
                          10524 ;	src\\functions.c 581
                          10525 ; genPlus
                          10526 ; AOP_STK for _detect_epee_collision_iter_1_1
                          10527 ; genPlusIncr
   2305 F8 03             10528 	lda	hl,3(sp)
   2307 34                10529 	inc	(hl)
                          10530 ; genGoto
   2308 C3 4D 22          10531 	jp	00109$
                          10532 ; genLabel
   230B                   10533 00113$:
                          10534 ; genEndFunction
   230B E8 04             10535 	lda	sp,4(sp)
   230D C1                10536 	pop	bc
   230E C9                10537 	ret
   230F                   10538 ___detect_epee_collision_end:
                          10539 ;	src\\main.c 4
                          10540 ; genLabel
                          10541 ; genFunction
                          10542 ;	---------------------------------
                          10543 ; Function main
                          10544 ; ---------------------------------
   230F                   10545 ___main_start:
   230F                   10546 _main:
   230F C5                10547 	push	bc
                          10548 	
                          10549 ;	src\\main.c 5
                          10550 ; genAssign
                          10551 ; AOP_HL for _count_r
   2310 21 04 00          10552 	ld	hl,#_count_r + 0
   2313 36 00             10553 	ld	(hl),#0x00
   2315 23                10554 	inc	hl
   2316 36 00             10555 	ld	(hl),#0x00
                          10556 ;	src\\main.c 6
                          10557 ; genAssign
                          10558 ; AOP_HL for _count_l
   2318 21 06 00          10559 	ld	hl,#_count_l + 0
   231B 36 00             10560 	ld	(hl),#0x00
   231D 23                10561 	inc	hl
   231E 36 00             10562 	ld	(hl),#0x00
                          10563 ;	src\\main.c 7
                          10564 ; genAssign
                          10565 ; AOP_HL for _count_u
   2320 21 0A 00          10566 	ld	hl,#_count_u + 0
   2323 36 00             10567 	ld	(hl),#0x00
   2325 23                10568 	inc	hl
   2326 36 00             10569 	ld	(hl),#0x00
                          10570 ;	src\\main.c 8
                          10571 ; genAssign
                          10572 ; AOP_HL for _count_d
   2328 21 08 00          10573 	ld	hl,#_count_d + 0
   232B 36 00             10574 	ld	(hl),#0x00
   232D 23                10575 	inc	hl
   232E 36 00             10576 	ld	(hl),#0x00
                          10577 ;	src\\main.c 9
                          10578 ; genCall
   2330 CD 80 1F          10579 	call	_game_init
                          10580 ;	src\\main.c 12
                          10581 ; genLabel
   2333                   10582 00108$:
                          10583 ;	src\\main.c 15
                          10584 ; genCall
   2333 CD 37 1F          10585 	call	_detect_start
                          10586 ;	src\\main.c 18
                          10587 ; genCall
   2336 CD 61 1D          10588 	call	_detect_zone_change
                          10589 ;	src\\main.c 21
                          10590 ; genCall
   2339 CD F2 1E          10591 	call	_detect_proximity
                          10592 ;	src\\main.c 23
                          10593 ; genIfx
                          10594 ; AOP_HL for _epeestat
   233C AF                10595 	xor	a,a
   233D 21 1A 00          10596 	ld	hl,#_epeestat + 0
   2340 B6                10597 	or	a,(hl)
   2341 B7                10598 	or	a,a
   2342 CA 5B 23          10599 	jp	z,00104$
                          10600 ;	src\\main.c 25
                          10601 ; genCall
   2345 CD 00 00          10602 	call	_joypad
   2348 4B                10603 	ld	c,e
                          10604 ; genAnd
   2349 79                10605 	ld	a,c
   234A CB 67             10606 	bit	4,a
   234C CA 5B 23          10607 	jp	z,00104$
                          10608 ;	src\\main.c 26
                          10609 ; genCall
   234F CD 8A 20          10610 	call	_show_epee
                          10611 ;	src\\main.c 27
                          10612 ; genCall
   2352 CD 46 22          10613 	call	_detect_epee_collision
                          10614 ;	src\\main.c 28
                          10615 ; genCall
   2355 CD 00 00          10616 	call	_waitpadup
                          10617 ;	src\\main.c 29
                          10618 ; genCall
   2358 CD 38 22          10619 	call	_hide_epee
                          10620 ; genLabel
   235B                   10621 00104$:
                          10622 ;	src\\main.c 35
                          10623 ; genCall
   235B CD F2 1A          10624 	call	_detect_movement
                          10625 ;	src\\main.c 37
                          10626 ; genCmpLt
                          10627 ; AOP_HL for _compteur_cycles
   235E 21 14 00          10628 	ld	hl,#_compteur_cycles + 0
   2361 5E                10629 	ld	e,(hl)
   2362 23                10630 	inc	hl
   2363 56                10631 	ld	d,(hl)
   2364 21 06 FF          10632 	ld	hl,#0xFF06
   2367 19                10633 	add	hl,de
   2368 D2 73 23          10634 	jp	nc,00106$
                          10635 ;	src\\main.c 38
                          10636 ; genAssign
                          10637 ; AOP_HL for _compteur_cycles
   236B 21 14 00          10638 	ld	hl,#_compteur_cycles + 0
   236E 36 00             10639 	ld	(hl),#0x00
   2370 23                10640 	inc	hl
   2371 36 00             10641 	ld	(hl),#0x00
                          10642 ; genLabel
   2373                   10643 00106$:
                          10644 ;	src\\main.c 40
                          10645 ; genPlus
                          10646 ; AOP_HL for _compteur_cycles
                          10647 ; genPlusIncr
   2373 21 14 00          10648 	ld	hl,#_compteur_cycles + 0
   2376 34                10649 	inc	(hl)
   2377 20 02             10650 	jr	nz,00116$
   2379 23                10651 	inc	hl
   237A 34                10652 	inc	(hl)
   237B                   10653 00116$:
                          10654 ;	src\\main.c 42
                          10655 ; genIpush
   237B 21 0A 00          10656 	ld	hl,#0x000A
   237E E5                10657 	push	hl
                          10658 ; genCall
   237F CD 00 00          10659 	call	_delay
   2382 E8 02             10660 	lda	sp,2(sp)
                          10661 ; genGoto
   2384 C3 33 23          10662 	jp	00108$
                          10663 ; genLabel
   2387                   10664 00110$:
                          10665 ; genEndFunction
                          10666 	
   2387 C1                10667 	pop	bc
   2388 C9                10668 	ret
   2389                   10669 ___main_end:
                          10670 	.area _CODE
   2389                   10671 __str_23:
   2389 20 20 20 20 20 20 10672 	.ascii "                                                            "
        20 20 20 20 20 20
        20 20 20 20 20 20
        20 20 20 20 20 20
        20 20 20 20 20 20
        20 20 20 20 20 20
        20 20 20 20 20 20
        20 20 20 20 20 20
        20 20 20 20 20 20
        20 20 20 20 20 20
   23C5 00                10673 	.db 0x00
   23C6                   10674 __str_24:
   23C6 76 69 6F 63       10675 	.ascii "vioc"
   23CA 00                10676 	.db 0x00
   23CB                   10677 __str_25:
   23CB 42 49 45 4E 56 45 10678 	.ascii "BIENVENUE AVENTURIERIL FAIT FROID ICI   VA TE COUVRIR"
        4E 55 45 20 41 56
        45 4E 54 55 52 49
        45 52 49 4C 20 46
        41 49 54 20 46 52
        4F 49 44 20 49 43
        49 20 20 20 56 41
        20 54 45 20 43 4F
        55 56 52 49 52
   2400 00                10679 	.db 0x00
   2401                   10680 __str_26:
   2401 42 4F 4E 20 56 4F 10681 	.ascii "BON VOICI UNE EPEE  ELLE POURRA PEUT    ETRE T ETRE UTILE"
        49 43 49 20 55 4E
        45 20 45 50 45 45
        20 20 45 4C 4C 45
        20 50 4F 55 52 52
        41 20 50 45 55 54
        20 20 20 20 45 54
        52 45 20 54 20 45
        54 52 45 20 55 54
        49 4C 45
   243A 00                10682 	.db 0x00
   243B                   10683 __str_27:
   243B 6D 65 75 66       10684 	.ascii "meuf"
   243F 00                10685 	.db 0x00
   2440                   10686 __str_28:
   2440 42 4F 4E 4A 4F 55 10687 	.ascii "BONJOUR MON CHER    VOUS ETES TRES      SEDUISANT"
        52 20 4D 4F 4E 20
        43 48 45 52 20 20
        20 20 56 4F 55 53
        20 45 54 45 53 20
        54 52 45 53 20 20
        20 20 20 20 53 45
        44 55 49 53 41 4E
        54
   2471 00                10688 	.db 0x00
   2472                   10689 __str_29:
   2472 00                10690 	.db 0x00
   2473                   10691 __str_30:
   2473 65 6E 65 6D 69    10692 	.ascii "enemi"
   2478 00                10693 	.db 0x00
   2479                   10694 __str_31:
   2479 47 4F 55 4D 45 20 10695 	.ascii "GOUME MOI AVANT QUE JE NE TE GOUME"
        4D 4F 49 20 41 56
        41 4E 54 20 51 55
        45 20 4A 45 20 4E
        45 20 54 45 20 47
        4F 55 4D 45
   249B 00                10696 	.db 0x00
   249C                   10697 __str_32:
   249C 00                10698 	.db 0x00
ASxxxx Assembler V01.75  (GameBoy Z80-like CPU), page 1.

Symbol Table

    _BCPD_REG                          **** GX
    _BCPS_REG                          **** GX
    _BGP_REG                           **** GX
    _DIV_REG                           **** GX
    _DMA_REG                           **** GX
    _HDMA1_REG                         **** GX
    _HDMA2_REG                         **** GX
    _HDMA3_REG                         **** GX
    _HDMA4_REG                         **** GX
    _HDMA5_REG                         **** GX
    _IE_REG                            **** GX
    _IF_REG                            **** GX
    _KEY1_REG                          **** GX
    _LCDC_REG                          **** GX
    _LYC_REG                           **** GX
    _LY_REG                            **** GX
    _NR10_REG                          **** GX
    _NR11_REG                          **** GX
    _NR12_REG                          **** GX
    _NR13_REG                          **** GX
    _NR14_REG                          **** GX
    _NR21_REG                          **** GX
    _NR22_REG                          **** GX
    _NR23_REG                          **** GX
    _NR24_REG                          **** GX
    _NR30_REG                          **** GX
    _NR31_REG                          **** GX
    _NR32_REG                          **** GX
    _NR33_REG                          **** GX
    _NR34_REG                          **** GX
    _NR41_REG                          **** GX
    _NR42_REG                          **** GX
    _NR43_REG                          **** GX
    _NR44_REG                          **** GX
    _NR50_REG                          **** GX
    _NR51_REG                          **** GX
    _NR52_REG                          **** GX
    _OBP0_REG                          **** GX
    _OBP1_REG                          **** GX
    _OCPD_REG                          **** GX
    _OCPS_REG                          **** GX
    _P1_REG                            **** GX
    _RP_REG                            **** GX
    _SB_REG                            **** GX
    _SCX_REG                           **** GX
    _SCY_REG                           **** GX
    _SC_REG                            **** GX
    _STAT_REG                          **** GX
    _SVBK_REG                          **** GX
    _TAC_REG                           **** GX
    _TIMA_REG                          **** GX
    _TMA_REG                           **** GX
    _VBK_REG                           **** GX
    _WX_REG                            **** GX
    _WY_REG                            **** GX
  0 ___can_player_move_end             0E53 R
  0 ___can_player_move_start           0C8A R
  0 ___chr_to_hex_end                  18F9 R
  0 ___chr_to_hex_start                1799 R
  0 ___debug_end                       0001 R
  0 ___debug_start                     0000 R
  0 ___detect_edge_end                 1799 R
  0 ___detect_edge_start               1537 R
  0 ___detect_epee_collision_end       230F R
  0 ___detect_epee_collision_start     2246 R
  0 ___detect_movement_end             1D61 R
  0 ___detect_movement_start           1AF2 R
  0 ___detect_proximity_end            1F37 R
  0 ___detect_proximity_start          1EF2 R
  0 ___detect_start_end                1F80 R
  0 ___detect_start_start              1F37 R
  0 ___detect_zone_change_end          1EF2 R
  0 ___detect_zone_change_start        1D61 R
  0 ___free_end                        0BCC R
  0 ___free_start                      0B04 R
  0 ___game_init_end                   2061 R
  0 ___game_init_start                 1F80 R
  0 ___get_active_pnj_end              1537 R
  0 ___get_active_pnj_start            14EE R
  0 ___get_active_zone_end             14EE R
  0 ___get_active_zone_start           14A8 R
  0 ___get_player_direction_end        104C R
  0 ___get_player_direction_start      0FE5 R
  0 ___get_player_tile_end             10A9 R
  0 ___get_player_tile_start           104C R
  0 ___hide_epee_end                   2246 R
  0 ___hide_epee_start                 2238 R
  0 ___hide_pnj_end                    11F9 R
  0 ___hide_pnj_start                  11C4 R
  0 ___hide_win_text_end               19AD R
  0 ___hide_win_text_start             1992 R
  0 ___main_end                        2389 R
  0 ___main_start                      230F R
  0 ___malloc_end                      0AB8 R
  8 ___malloc_gc_end                   0161 R
  8 ___malloc_gc_start                 0000 R
  0 ___malloc_init_end                 08C2 R
  0 ___malloc_init_start               0869 R
  0 ___malloc_start                    08D9 R
  0 ___move_player_end                 14A8 R
  0 ___move_player_start               126C R
  0 ___print_to_win_end                1992 R
  0 ___print_to_win_start              18F9 R
  0 ___proximity_end                   0FE5 R
  0 ___proximity_start                 0E53 R
  0 ___set_player_tile_end             1133 R
  0 ___set_player_tile_start           10A9 R
  0 ___set_pnj_end                     11C4 R
  0 ___set_pnj_start                   1133 R
  0 ___set_zone_end                    126C R
  0 ___set_zone_start                  11F9 R
  0 ___show_epee_end                   2238 R
  0 ___show_epee_start                 208A R
  0 ___show_message_end                1ABF R
  0 ___show_message_start              19AD R
  0 ___strcmp_end                      0C89 R
  0 ___strcmp_start                    0C10 R
    __cpu                              **** GX
    __divuint                          **** GX
    __io_in                            **** GX
    __io_out                           **** GX
    __io_status                        **** GX
    __moduint                          **** GX
    __muluchar                         **** GX
    __muluint                          **** GX
  0 __str_0                            08C2 R
  0 __str_1                            08CE R
  0 __str_10                           0AE4 R
  0 __str_11                           0AEB R
  0 __str_12                           0BCC R
  0 __str_13                           0BD1 R
  0 __str_14                           0BDC R
  0 __str_15                           0BE1 R
  0 __str_16                           0BFD R
  0 __str_17                           0C02 R
  0 __str_18                           1ABF R
  0 __str_19                           1AC4 R
  8 __str_2                            0161 R
  0 __str_20                           1AC9 R
  0 __str_21                           1AEC R
  0 __str_22                           2061 R
  0 __str_23                           2389 R
  0 __str_24                           23C6 R
  0 __str_25                           23CB R
  0 __str_26                           2401 R
  0 __str_27                           243B R
  0 __str_28                           2440 R
  0 __str_29                           2472 R
  8 __str_3                            016B R
  0 __str_30                           2473 R
  0 __str_31                           2479 R
  0 __str_32                           249C R
  8 __str_4                            0173 R
  8 __str_5                            017D R
  0 __str_6                            0AB8 R
  0 __str_7                            0ABF R
  0 __str_8                            0ACD R
  0 __str_9                            0AD4 R
  1 _blanktext                         001E GR
  0 _bonhomme                          0789 GR
  0 _can_player_move                   0C8A GR
  0 _chr_to_hex                        1799 GR
  1 _compteur_cycles                   0014 GR
  1 _count_d                           0008 GR
  1 _count_l                           0006 GR
  1 _count_r                           0004 GR
  1 _count_u                           000A GR
  0 _debug                             0000 GR
    _delay                             **** GX
  0 _detect_edge                       1537 GR
  0 _detect_epee_collision             2246 GR
  0 _detect_movement                   1AF2 GR
  0 _detect_proximity                  1EF2 GR
  0 _detect_start                      1F37 GR
  0 _detect_zone_change                1D61 GR
  0 _enemi                             0859 GR
  0 _epee                              07F9 GR
  1 _epee_coords                       001C GR
  1 _epeestat                          001A GR
    _font_ibm                          **** GX
    _font_ibm_fixed                    **** GX
    _font_init                         **** GX
    _font_italic                       **** GX
    _font_load                         **** GX
    _font_min                          **** GX
    _font_set                          **** GX
    _font_spect                        **** GX
  0 _free                              0B04 GR
  0 _game_init                         1F80 GR
  0 _get_active_pnj                    14EE GR
  0 _get_active_zone                   14A8 GR
  0 _get_player_direction              0FE5 GR
  0 _get_player_tile                   104C GR
    _get_sprite_tile                   **** GX
  0 _ground                            0351 GR
  0 _ground2                           04B9 GR
  0 _ground3                           0621 GR
  0 _groundtiles                       0001 GR
  0 _hide_epee                         2238 GR
  0 _hide_pnj                          11C4 GR
  0 _hide_win_text                     1992 GR
    _joypad                            **** GX
  1 _listepnj                          0020 GR
  1 _listezone                         0050 GR
  0 _main                              230F GR
  0 _malloc                            08D9 GR
  1 _malloc_first                      0000 GR
  8 _malloc_gc                         0000 GR
    _malloc_heap_start                 **** GX
  0 _malloc_init                       0869 GR
  0 _meuf                              0839 GR
  1 _min_font                          0018 GR
  0 _move_player                       126C GR
    _move_sprite                       **** GX
    _move_win                          **** GX
  1 _player_location                   000C GR
  0 _print_to_win                      18F9 GR
  1 _prox                              001B GR
  0 _proximity                         0E53 GR
  1 _proxtest                          0012 GR
  0 _room                              0081 GR
  0 _room2                             01E9 GR
    _scroll_sprite                     **** GX
    _set_bkg_data                      **** GX
    _set_bkg_tiles                     **** GX
  0 _set_player_tile                   10A9 GR
  0 _set_pnj                           1133 GR
    _set_sprite_data                   **** GX
    _set_sprite_tile                   **** GX
    _set_win_data                      **** GX
    _set_win_tiles                     **** GX
  0 _set_zone                          11F9 GR
  0 _show_epee                         208A GR
  0 _show_message                      19AD GR
  0 _sizelistepnj                      0C89 GR
  1 _speed                             0010 GR
  1 _startbool                         0016 GR
  0 _strcmp                            0C10 GR
    _sys_time                          **** GX
  0 _vioc                              0849 GR
  0 _virgule                           0071 GR
    _waitpad                           **** GX
    _waitpadup                         **** GX
  1 _winmap                            0002 GR
    banked_call                        **** GX

ASxxxx Assembler V01.75  (GameBoy Z80-like CPU), page 2.

Area Table

   0 _CODE                              size 249D   flags 0
   1 _DATA                              size   73   flags 0
   2 _OVERLAY                           size    0   flags 0
   3 _ISEG                              size    0   flags 0
   4 _BSEG                              size    0   flags 0
   5 _XSEG                              size    0   flags 0
   6 _GSINIT                            size  207   flags 0
   7 _GSFINAL                           size    0   flags 0
   8 _HOME                              size  19A   flags 0
